# SymbolsHelper-Confirmed: 2.8.0 amd64 i386
libKChart.so.2 libkchart2 #MINVER#
* Build-Depends-Package: libkchart-dev
 _ZN11KChartEnums11qt_metacallEN11QMetaObject4CallEiPPv@Base 2.8.0
 _ZN11KChartEnums11qt_metacastEPKc@Base 2.8.0
 _ZN11KChartEnums16staticMetaObjectE@Base 2.8.0
 _ZN6KChart10BarDiagram10paintEventEP11QPaintEvent@Base 2.6.0
 _ZN6KChart10BarDiagram11qt_metacallEN11QMetaObject4CallEiPPv@Base 2.6.0
 _ZN6KChart10BarDiagram11qt_metacastEPKc@Base 2.6.0
 _ZN6KChart10BarDiagram11resizeEventEP12QResizeEvent@Base 2.6.0
 _ZN6KChart10BarDiagram14BarDiagramType13reverseMapperEv@Base 2.6.0
 _ZN6KChart10BarDiagram14BarDiagramType26calculateValueAndGapWidthsEiidRdS2_S2_@Base 2.6.0
 _ZN6KChart10BarDiagram14BarDiagramType9paintBarsEPNS_12PaintContextERK11QModelIndexRK6QRectFd@Base 2.6.0
 _ZN6KChart10BarDiagram14setOrientationEN2Qt11OrientationE@Base 2.6.0
 _ZN6KChart10BarDiagram16setBarAttributesERK11QModelIndexRKNS_13BarAttributesE@Base 2.6.0
 _ZN6KChart10BarDiagram16setBarAttributesERKNS_13BarAttributesE@Base 2.6.0
 _ZN6KChart10BarDiagram16setBarAttributesEiRKNS_13BarAttributesE@Base 2.6.0
 _ZN6KChart10BarDiagram16staticMetaObjectE@Base 2.6.0
 _ZN6KChart10BarDiagram22setThreeDBarAttributesERK11QModelIndexRKNS_19ThreeDBarAttributesE@Base 2.6.0
 _ZN6KChart10BarDiagram22setThreeDBarAttributesERKNS_19ThreeDBarAttributesE@Base 2.6.0
 _ZN6KChart10BarDiagram22setThreeDBarAttributesEiRKNS_19ThreeDBarAttributesE@Base 2.6.0
 _ZN6KChart10BarDiagram4initEv@Base 2.6.0
 _ZN6KChart10BarDiagram5paintEPNS_12PaintContextE@Base 2.6.0
 _ZN6KChart10BarDiagram6resizeERK6QSizeF@Base 2.6.0
 _ZN6KChart10BarDiagram7setTypeENS0_7BarTypeE@Base 2.6.0
 _ZN6KChart10BarDiagramC1EP7QWidgetPNS_24CartesianCoordinatePlaneE@Base 2.6.0
 _ZN6KChart10BarDiagramC2EP7QWidgetPNS_24CartesianCoordinatePlaneE@Base 2.6.0
 _ZN6KChart10BarDiagramD0Ev@Base 2.6.0
 _ZN6KChart10BarDiagramD1Ev@Base 2.6.0
 _ZN6KChart10BarDiagramD2Ev@Base 2.6.0
 _ZN6KChart10PieDiagram10paintEventEP11QPaintEvent@Base 2.6.0
 _ZN6KChart10PieDiagram11calcPieSizeERK6QRectF@Base 2.6.0
 _ZN6KChart10PieDiagram11findSliceAtEdi@Base 2.6.0
 _ZN6KChart10PieDiagram11placeLabelsEPNS_12PaintContextE@Base 2.6.0
 _ZN6KChart10PieDiagram11qt_metacallEN11QMetaObject4CallEiPPv@Base 2.6.0
 _ZN6KChart10PieDiagram11qt_metacastEPKc@Base 2.6.0
 _ZN6KChart10PieDiagram11resizeEventEP12QResizeEvent@Base 2.6.0
 _ZN6KChart10PieDiagram12draw3DEffectEP8QPainterRK6QRectFj@Base 2.6.0
 _ZN6KChart10PieDiagram13addSliceLabelEPNS_15LabelPaintCacheERK6QRectFj@Base 2.6.0
 _ZN6KChart10PieDiagram13findLeftSliceEji@Base 2.6.0
 _ZN6KChart10PieDiagram13paintInternalEPNS_12PaintContextE@Base 2.6.0
 _ZN6KChart10PieDiagram13shuffleLabelsEP6QRectF@Base 2.6.0
 _ZN6KChart10PieDiagram14draw3dOuterRimEP8QPainterRK6QRectFddd@Base 2.6.0
 _ZN6KChart10PieDiagram14findRightSliceEji@Base 2.6.0
 _ZN6KChart10PieDiagram14pointOnEllipseERK6QRectFd@Base 2.6.0
 _ZN6KChart10PieDiagram15calcSliceAnglesEv@Base 2.6.0
 _ZN6KChart10PieDiagram16draw3dCutSurfaceEP8QPainterRK6QRectFdd@Base 2.6.0
 _ZN6KChart10PieDiagram16drawSliceSurfaceEP8QPainterRK6QRectFj@Base 2.6.0
 _ZN6KChart10PieDiagram16staticMetaObjectE@Base 2.6.0
 _ZN6KChart10PieDiagram19setLabelDecorationsE6QFlagsINS0_15LabelDecorationEE@Base 2.6.0
 _ZN6KChart10PieDiagram33setLabelCollisionAvoidanceEnabledEb@Base 2.6.0
 _ZN6KChart10PieDiagram4initEv@Base 2.6.0
 _ZN6KChart10PieDiagram5paintEPNS_12PaintContextE@Base 2.6.0
 _ZN6KChart10PieDiagram6resizeERK6QSizeF@Base 2.6.0
 _ZN6KChart10PieDiagram9drawSliceEP8QPainterRK6QRectFj@Base 2.6.0
 _ZN6KChart10PieDiagramC1EP7QWidgetPNS_20PolarCoordinatePlaneE@Base 2.6.0
 _ZN6KChart10PieDiagramC2EP7QWidgetPNS_20PolarCoordinatePlaneE@Base 2.6.0
 _ZN6KChart10PieDiagramD0Ev@Base 2.6.0
 _ZN6KChart10PieDiagramD1Ev@Base 2.6.0
 _ZN6KChart10PieDiagramD2Ev@Base 2.6.0
 _ZN6KChart11LineDiagram10paintEventEP11QPaintEvent@Base 2.6.0
 _ZN6KChart11LineDiagram11qt_metacallEN11QMetaObject4CallEiPPv@Base 2.6.0
 _ZN6KChart11LineDiagram11qt_metacastEPKc@Base 2.6.0
 _ZN6KChart11LineDiagram11resizeEventEP12QResizeEvent@Base 2.6.0
 _ZN6KChart11LineDiagram15LineDiagramType13reverseMapperEv@Base 2.6.0
 _ZN6KChart11LineDiagram16staticMetaObjectE@Base 2.6.0
 _ZN6KChart11LineDiagram17setLineAttributesERK11QModelIndexRKNS_14LineAttributesE@Base 2.6.0
 _ZN6KChart11LineDiagram17setLineAttributesERKNS_14LineAttributesE@Base 2.6.0
 _ZN6KChart11LineDiagram17setLineAttributesEiRKNS_14LineAttributesE@Base 2.6.0
 _ZN6KChart11LineDiagram19resetLineAttributesERK11QModelIndex@Base 2.6.0
 _ZN6KChart11LineDiagram19resetLineAttributesEi@Base 2.6.0
 _ZN6KChart11LineDiagram19setCenterDataPointsEb@Base 2.6.0
 _ZN6KChart11LineDiagram22setReverseDatasetOrderEb@Base 2.6.0
 _ZN6KChart11LineDiagram23setThreeDLineAttributesERK11QModelIndexRKNS_20ThreeDLineAttributesE@Base 2.6.0
 _ZN6KChart11LineDiagram23setThreeDLineAttributesERKNS_20ThreeDLineAttributesE@Base 2.6.0
 _ZN6KChart11LineDiagram23setThreeDLineAttributesEiRKNS_20ThreeDLineAttributesE@Base 2.6.0
 _ZN6KChart11LineDiagram25setValueTrackerAttributesERK11QModelIndexRKNS_22ValueTrackerAttributesE@Base 2.6.0
 _ZN6KChart11LineDiagram4initEv@Base 2.6.0
 _ZN6KChart11LineDiagram5paintEPNS_12PaintContextE@Base 2.6.0
 _ZN6KChart11LineDiagram6resizeERK6QSizeF@Base 2.6.0
 _ZN6KChart11LineDiagram7setTypeENS0_8LineTypeE@Base 2.6.0
 _ZN6KChart11LineDiagramC1EP7QWidgetPNS_24CartesianCoordinatePlaneE@Base 2.6.0
 _ZN6KChart11LineDiagramC2EP7QWidgetPNS_24CartesianCoordinatePlaneE@Base 2.6.0
 _ZN6KChart11LineDiagramD0Ev@Base 2.6.0
 _ZN6KChart11LineDiagramD1Ev@Base 2.6.0
 _ZN6KChart11LineDiagramD2Ev@Base 2.6.0
 _ZN6KChart11RingDiagram10paintEventEP11QPaintEvent@Base 2.6.0
 _ZN6KChart11RingDiagram11qt_metacallEN11QMetaObject4CallEiPPv@Base 2.6.0
 _ZN6KChart11RingDiagram11qt_metacastEPKc@Base 2.6.0
 _ZN6KChart11RingDiagram11resizeEventEP12QResizeEvent@Base 2.6.0
 _ZN6KChart11RingDiagram12drawOneSliceEP8QPainterjjd@Base 2.6.0
 _ZN6KChart11RingDiagram14drawPieSurfaceEP8QPainterjjd@Base 2.6.0
 _ZN6KChart11RingDiagram14pointOnEllipseERK6QRectFiibddd@Base 2.6.0
 _ZN6KChart11RingDiagram16staticMetaObjectE@Base 2.6.0
 _ZN6KChart11RingDiagram20setRelativeThicknessEb@Base 2.6.0
 _ZN6KChart11RingDiagram21setExpandWhenExplodedEb@Base 2.6.0
 _ZN6KChart11RingDiagram4initEv@Base 2.6.0
 _ZN6KChart11RingDiagram5paintEPNS_12PaintContextE@Base 2.6.0
 _ZN6KChart11RingDiagram6resizeERK6QSizeF@Base 2.6.0
 _ZN6KChart11RingDiagramC1EP7QWidgetPNS_20PolarCoordinatePlaneE@Base 2.6.0
 _ZN6KChart11RingDiagramC2EP7QWidgetPNS_20PolarCoordinatePlaneE@Base 2.6.0
 _ZN6KChart11RingDiagramD0Ev@Base 2.6.0
 _ZN6KChart11RingDiagramD1Ev@Base 2.6.0
 _ZN6KChart11RingDiagramD2Ev@Base 2.6.0
 _ZN6KChart11TernaryAxis11qt_metacallEN11QMetaObject4CallEiPPv@Base 2.6.0
 _ZN6KChart11TernaryAxis11qt_metacastEPKc@Base 2.6.0
 _ZN6KChart11TernaryAxis11setGeometryERK5QRect@Base 2.6.0
 _ZN6KChart11TernaryAxis11setPositionENS_8PositionE@Base 2.6.0
 _ZN6KChart11TernaryAxis12setTitleTextERK7QString@Base 2.6.0
 _ZN6KChart11TernaryAxis16staticMetaObjectE@Base 2.6.0
 _ZN6KChart11TernaryAxis22setTitleTextAttributesERKNS_14TextAttributesE@Base 2.6.0
 _ZN6KChart11TernaryAxis23updatePrerenderedLabelsEv@Base 2.6.0
 _ZN6KChart11TernaryAxis24resetTitleTextAttributesEv@Base 2.6.0
 _ZN6KChart11TernaryAxis5paintEP8QPainter@Base 2.6.0
 _ZN6KChart11TernaryAxis8paintAllER8QPainter@Base 2.6.0
 _ZN6KChart11TernaryAxis8paintCtxEPNS_12PaintContextE@Base 2.6.0
 _ZN6KChart11TernaryAxisC1EPNS_22AbstractTernaryDiagramE@Base 2.6.0
 _ZN6KChart11TernaryAxisC2EPNS_22AbstractTernaryDiagramE@Base 2.6.0
 _ZN6KChart11TernaryAxisD0Ev@Base 2.6.0
 _ZN6KChart11TernaryAxisD1Ev@Base 2.6.0
 _ZN6KChart11TernaryAxisD2Ev@Base 2.6.0
 _ZN6KChart12AbstractArea11qt_metacallEN11QMetaObject4CallEiPPv@Base 2.6.0
 _ZN6KChart12AbstractArea11qt_metacastEPKc@Base 2.6.0
 _ZN6KChart12AbstractArea13paintIntoRectER8QPainterRK5QRect@Base 2.6.0
 _ZN6KChart12AbstractArea15positionChangedEPS0_@Base 2.6.0
 _ZN6KChart12AbstractArea16staticMetaObjectE@Base 2.6.0
 _ZN6KChart12AbstractArea18positionHasChangedEv@Base 2.6.0
 _ZN6KChart12AbstractArea4initEv@Base 2.6.0
 _ZN6KChart12AbstractArea8paintAllER8QPainter@Base 2.6.0
 _ZN6KChart12AbstractAreaC1Ev@Base 2.6.0
 _ZN6KChart12AbstractAreaC2Ev@Base 2.6.0
 _ZN6KChart12AbstractAreaD0Ev@Base 2.6.0
 _ZN6KChart12AbstractAreaD1Ev@Base 2.6.0
 _ZN6KChart12AbstractAreaD2Ev@Base 2.6.0
 _ZN6KChart12AbstractAxis11delayedInitEv@Base 2.6.0
 _ZN6KChart12AbstractAxis11qt_metacallEN11QMetaObject4CallEiPPv@Base 2.6.0
 _ZN6KChart12AbstractAxis11qt_metacastEPKc@Base 2.6.0
 _ZN6KChart12AbstractAxis14connectSignalsEv@Base 2.6.0
 _ZN6KChart12AbstractAxis14createObserverEPNS_15AbstractDiagramE@Base 2.6.0
 _ZN6KChart12AbstractAxis14deleteObserverEPNS_15AbstractDiagramE@Base 2.6.0
 _ZN6KChart12AbstractAxis14setShortLabelsERK11QStringList@Base 2.6.0
 _ZN6KChart12AbstractAxis16staticMetaObjectE@Base 2.6.0
 _ZN6KChart12AbstractAxis17setTextAttributesERKNS_14TextAttributesE@Base 2.6.0
 _ZN6KChart12AbstractAxis18setRulerAttributesERKNS_15RulerAttributesE@Base 2.6.0
 _ZN6KChart12AbstractAxis23coordinateSystemChangedEv@Base 2.6.0
 _ZN6KChart12AbstractAxis4initEv@Base 2.6.0
 _ZN6KChart12AbstractAxis6updateEv@Base 2.6.0
 _ZN6KChart12AbstractAxis9setLabelsERK11QStringList@Base 2.6.0
 _ZN6KChart12AbstractAxisC1EPNS_15AbstractDiagramE@Base 2.6.0
 _ZN6KChart12AbstractAxisC2EPNS_15AbstractDiagramE@Base 2.6.0
 _ZN6KChart12AbstractAxisD0Ev@Base 2.6.0
 _ZN6KChart12AbstractAxisD1Ev@Base 2.6.0
 _ZN6KChart12AbstractAxisD2Ev@Base 2.6.0
 _ZN6KChart12HeaderFooter11qt_metacallEN11QMetaObject4CallEiPPv@Base 2.6.0
 _ZN6KChart12HeaderFooter11qt_metacastEPKc@Base 2.6.0
 _ZN6KChart12HeaderFooter11setPositionENS_8PositionE@Base 2.6.0
 _ZN6KChart12HeaderFooter15positionChangedEPS0_@Base 2.6.0
 _ZN6KChart12HeaderFooter16staticMetaObjectE@Base 2.6.0
 _ZN6KChart12HeaderFooter21destroyedHeaderFooterEPS0_@Base 2.6.0
 _ZN6KChart12HeaderFooter4initEv@Base 2.6.0
 _ZN6KChart12HeaderFooter7setTypeENS0_16HeaderFooterTypeE@Base 2.6.0
 _ZN6KChart12HeaderFooter9setParentEP7QObject@Base 2.6.0
 _ZN6KChart12HeaderFooterC1EPNS_5ChartE@Base 2.6.0
 _ZN6KChart12HeaderFooterC2EPNS_5ChartE@Base 2.6.0
 _ZN6KChart12HeaderFooterD0Ev@Base 2.6.0
 _ZN6KChart12HeaderFooterD1Ev@Base 2.6.0
 _ZN6KChart12HeaderFooterD2Ev@Base 2.6.0
 _ZN6KChart12PaintContext10setPainterEP8QPainter@Base 2.6.0
 _ZN6KChart12PaintContext12setRectangleERK6QRectF@Base 2.6.0
 _ZN6KChart12PaintContext18setCoordinatePlaneEPNS_23AbstractCoordinatePlaneE@Base 2.6.0
 _ZN6KChart12PaintContextC1Ev@Base 2.6.0
 _ZN6KChart12PaintContextC2Ev@Base 2.6.0
 _ZN6KChart12PaintContextD1Ev@Base 2.6.0
 _ZN6KChart12PaintContextD2Ev@Base 2.6.0
 _ZN6KChart12PolarDiagram10paintEventEP11QPaintEvent@Base 2.6.0
 _ZN6KChart12PolarDiagram11qt_metacallEN11QMetaObject4CallEiPPv@Base 2.6.0
 _ZN6KChart12PolarDiagram11qt_metacastEPKc@Base 2.6.0
 _ZN6KChart12PolarDiagram11resizeEventEP12QResizeEvent@Base 2.6.0
 _ZN6KChart12PolarDiagram16setCloseDatasetsEb@Base 2.6.0
 _ZN6KChart12PolarDiagram16staticMetaObjectE@Base 2.6.0
 _ZN6KChart12PolarDiagram17paintPolarMarkersEPNS_12PaintContextERK9QPolygonF@Base 2.6.0
 _ZN6KChart12PolarDiagram21setZeroDegreePositionEi@Base 2.6.0
 _ZN6KChart12PolarDiagram23setRotateCircularLabelsEb@Base 2.6.0
 _ZN6KChart12PolarDiagram23setShowLabelsAtPositionENS_8PositionEb@Base 2.6.0
 _ZN6KChart12PolarDiagram27setShowDelimitersAtPositionENS_8PositionEb@Base 2.6.0
 _ZN6KChart12PolarDiagram4initEv@Base 2.6.0
 _ZN6KChart12PolarDiagram5paintEPNS_12PaintContextE@Base 2.6.0
 _ZN6KChart12PolarDiagram5paintEPNS_12PaintContextEbRdS3_@Base 2.6.0
 _ZN6KChart12PolarDiagram6resizeERK6QSizeF@Base 2.6.0
 _ZN6KChart12PolarDiagramC1EP7QWidgetPNS_20PolarCoordinatePlaneE@Base 2.6.0
 _ZN6KChart12PolarDiagramC2EP7QWidgetPNS_20PolarCoordinatePlaneE@Base 2.6.0
 _ZN6KChart12PolarDiagramD0Ev@Base 2.6.0
 _ZN6KChart12PolarDiagramD1Ev@Base 2.6.0
 _ZN6KChart12PolarDiagramD2Ev@Base 2.6.0
 _ZN6KChart12RadarDiagram10paintEventEP11QPaintEvent@Base 2.6.0
 _ZN6KChart12RadarDiagram11qt_metacallEN11QMetaObject4CallEiPPv@Base 2.6.0
 _ZN6KChart12RadarDiagram11qt_metacastEPKc@Base 2.6.0
 _ZN6KChart12RadarDiagram11resizeEventEP12QResizeEvent@Base 2.6.0
 _ZN6KChart12RadarDiagram11reverseDataEv@Base 2.6.0
 _ZN6KChart12RadarDiagram12setFillAlphaEd@Base 2.6.0
 _ZN6KChart12RadarDiagram14setReverseDataEb@Base 2.6.0
 _ZN6KChart12RadarDiagram16setCloseDatasetsEb@Base 2.6.0
 _ZN6KChart12RadarDiagram16staticMetaObjectE@Base 2.6.0
 _ZN6KChart12RadarDiagram4initEv@Base 2.6.0
 _ZN6KChart12RadarDiagram5paintEPNS_12PaintContextE@Base 2.6.0
 _ZN6KChart12RadarDiagram5paintEPNS_12PaintContextEbRdS3_@Base 2.6.0
 _ZN6KChart12RadarDiagram6resizeERK6QSizeF@Base 2.6.0
 _ZN6KChart12RadarDiagramC1EP7QWidgetPNS_20RadarCoordinatePlaneE@Base 2.6.0
 _ZN6KChart12RadarDiagramC2EP7QWidgetPNS_20RadarCoordinatePlaneE@Base 2.6.0
 _ZN6KChart12RadarDiagramD0Ev@Base 2.6.0
 _ZN6KChart12RadarDiagramD1Ev@Base 2.6.0
 _ZN6KChart12RadarDiagramD2Ev@Base 2.6.0
 _ZN6KChart12StockDiagram11qt_metacallEN11QMetaObject4CallEiPPv@Base 2.6.0
 _ZN6KChart12StockDiagram11qt_metacastEPKc@Base 2.6.0
 _ZN6KChart12StockDiagram16staticMetaObjectE@Base 2.6.0
 _ZN6KChart12StockDiagram17setLowHighLinePenERK4QPen@Base 2.6.0
 _ZN6KChart12StockDiagram17setLowHighLinePenEiRK4QPen@Base 2.6.0
 _ZN6KChart12StockDiagram21setStockBarAttributesERKNS_18StockBarAttributesE@Base 2.6.0
 _ZN6KChart12StockDiagram21setStockBarAttributesEiRKNS_18StockBarAttributesE@Base 2.6.0
 _ZN6KChart12StockDiagram22setThreeDBarAttributesERKNS_19ThreeDBarAttributesE@Base 2.6.0
 _ZN6KChart12StockDiagram22setThreeDBarAttributesEiRKNS_19ThreeDBarAttributesE@Base 2.6.0
 _ZN6KChart12StockDiagram24setUpTrendCandlestickPenERK4QPen@Base 2.6.0
 _ZN6KChart12StockDiagram24setUpTrendCandlestickPenEiRK4QPen@Base 2.6.0
 _ZN6KChart12StockDiagram26setDownTrendCandlestickPenERK4QPen@Base 2.6.0
 _ZN6KChart12StockDiagram26setDownTrendCandlestickPenEiRK4QPen@Base 2.6.0
 _ZN6KChart12StockDiagram26setUpTrendCandlestickBrushERK6QBrush@Base 2.6.0
 _ZN6KChart12StockDiagram26setUpTrendCandlestickBrushEiRK6QBrush@Base 2.6.0
 _ZN6KChart12StockDiagram28setDownTrendCandlestickBrushERK6QBrush@Base 2.6.0
 _ZN6KChart12StockDiagram28setDownTrendCandlestickBrushEiRK6QBrush@Base 2.6.0
 _ZN6KChart12StockDiagram4initEv@Base 2.6.0
 _ZN6KChart12StockDiagram5paintEPNS_12PaintContextE@Base 2.6.0
 _ZN6KChart12StockDiagram6resizeERK6QSizeF@Base 2.6.0
 _ZN6KChart12StockDiagram7setTypeENS0_4TypeE@Base 2.6.0
 _ZN6KChart12StockDiagramC1EP7QWidgetPNS_24CartesianCoordinatePlaneE@Base 2.6.0
 _ZN6KChart12StockDiagramC2EP7QWidgetPNS_24CartesianCoordinatePlaneE@Base 2.6.0
 _ZN6KChart12StockDiagramD0Ev@Base 2.6.0
 _ZN6KChart12StockDiagramD1Ev@Base 2.6.0
 _ZN6KChart12StockDiagramD2Ev@Base 2.6.0
 _ZN6KChart13BarAttributes15setBarGapFactorEd@Base 2.6.0
 _ZN6KChart13BarAttributes16setFixedBarWidthEd@Base 2.6.0
 _ZN6KChart13BarAttributes17setGroupGapFactorEd@Base 2.6.0
 _ZN6KChart13BarAttributes19setUseFixedBarWidthEb@Base 2.6.0
 _ZN6KChart13BarAttributes20setFixedDataValueGapEd@Base 2.6.0
 _ZN6KChart13BarAttributes21setFixedValueBlockGapEd@Base 2.6.0
 _ZN6KChart13BarAttributes23setUseFixedDataValueGapEb@Base 2.6.0
 _ZN6KChart13BarAttributes24setDrawSolidExcessArrowsEb@Base 2.6.0
 _ZN6KChart13BarAttributes24setUseFixedValueBlockGapEb@Base 2.6.0
 _ZN6KChart13BarAttributesC1ERKS0_@Base 2.6.0
 _ZN6KChart13BarAttributesC1Ev@Base 2.6.0
 _ZN6KChart13BarAttributesC2ERKS0_@Base 2.6.0
 _ZN6KChart13BarAttributesC2Ev@Base 2.6.0
 _ZN6KChart13BarAttributesD1Ev@Base 2.6.0
 _ZN6KChart13BarAttributesD2Ev@Base 2.6.0
 _ZN6KChart13BarAttributesaSERKS0_@Base 2.6.0
 _ZN6KChart13CartesianAxis11qt_metacallEN11QMetaObject4CallEiPPv@Base 2.6.0
 _ZN6KChart13CartesianAxis11qt_metacastEPKc@Base 2.6.0
 _ZN6KChart13CartesianAxis11setGeometryERK5QRect@Base 2.6.0
 _ZN6KChart13CartesianAxis11setPositionENS0_8PositionE@Base 2.6.0
 _ZN6KChart13CartesianAxis12layoutPlanesEv@Base 2.6.0
 _ZN6KChart13CartesianAxis12setTitleSizeEd@Base 2.6.0
 _ZN6KChart13CartesianAxis12setTitleTextERK7QString@Base 2.6.0
 _ZN6KChart13CartesianAxis13setTitleSpaceEd@Base 2.6.0
 _ZN6KChart13CartesianAxis14setAnnotationsERK4QMapId7QStringE@Base 2.6.0
 _ZN6KChart13CartesianAxis14setCustomTicksERK5QListIdE@Base 2.6.0
 _ZN6KChart13CartesianAxis16staticMetaObjectE@Base 2.6.0
 _ZN6KChart13CartesianAxis19setCustomTickLengthEi@Base 2.6.0
 _ZN6KChart13CartesianAxis22setTitleTextAttributesERKNS_14TextAttributesE@Base 2.6.0
 _ZN6KChart13CartesianAxis23coordinateSystemChangedEv@Base 2.6.0
 _ZN6KChart13CartesianAxis24resetTitleTextAttributesEv@Base 2.6.0
 _ZN6KChart13CartesianAxis4initEv@Base 2.6.0
 _ZN6KChart13CartesianAxis5paintEP8QPainter@Base 2.6.0
 _ZN6KChart13CartesianAxis8paintCtxEPNS_12PaintContextE@Base 2.6.0
 _ZN6KChart13CartesianAxisC1EPNS_24AbstractCartesianDiagramE@Base 2.6.0
 _ZN6KChart13CartesianAxisC2EPNS_24AbstractCartesianDiagramE@Base 2.6.0
 _ZN6KChart13CartesianAxisD0Ev@Base 2.6.0
 _ZN6KChart13CartesianAxisD1Ev@Base 2.6.0
 _ZN6KChart13CartesianAxisD2Ev@Base 2.6.0
 _ZN6KChart13PieAttributes10setExplodeEb@Base 2.6.0
 _ZN6KChart13PieAttributes12setGapFactorEbd@Base 2.6.0
 _ZN6KChart13PieAttributes16setExplodeFactorEd@Base 2.6.0
 _ZN6KChart13PieAttributes4initEv@Base 2.6.0
 _ZN6KChart13PieAttributesC1ERKS0_@Base 2.6.0
 _ZN6KChart13PieAttributesC1Ev@Base 2.6.0
 _ZN6KChart13PieAttributesC2ERKS0_@Base 2.6.0
 _ZN6KChart13PieAttributesC2Ev@Base 2.6.0
 _ZN6KChart13PieAttributesD1Ev@Base 2.6.0
 _ZN6KChart13PieAttributesD2Ev@Base 2.6.0
 _ZN6KChart13PieAttributesaSERKS0_@Base 2.6.0
 _ZN6KChart14GridAttributes10setGridPenERK4QPen@Base 2.6.0
 _ZN6KChart14GridAttributes13setSubGridPenERK4QPen@Base 2.6.0
 _ZN6KChart14GridAttributes14setGridVisibleEb@Base 2.6.0
 _ZN6KChart14GridAttributes14setZeroLinePenERK4QPen@Base 2.6.0
 _ZN6KChart14GridAttributes16setGridStepWidthEd@Base 2.6.0
 _ZN6KChart14GridAttributes17setSubGridVisibleEb@Base 2.6.0
 _ZN6KChart14GridAttributes19setGridSubStepWidthEd@Base 2.6.0
 _ZN6KChart14GridAttributes20setOuterLinesVisibleEb@Base 2.6.0
 _ZN6KChart14GridAttributes21setAdjustBoundsToGridEbb@Base 2.6.0
 _ZN6KChart14GridAttributes21setLinesOnAnnotationsEb@Base 2.6.0
 _ZN6KChart14GridAttributes26setGridGranularitySequenceEN11KChartEnums19GranularitySequenceE@Base 2.6.0
 _ZN6KChart14GridAttributesC1ERKS0_@Base 2.6.0
 _ZN6KChart14GridAttributesC1Ev@Base 2.6.0
 _ZN6KChart14GridAttributesC2ERKS0_@Base 2.6.0
 _ZN6KChart14GridAttributesC2Ev@Base 2.6.0
 _ZN6KChart14GridAttributesD1Ev@Base 2.6.0
 _ZN6KChart14GridAttributesD2Ev@Base 2.6.0
 _ZN6KChart14GridAttributesaSERKS0_@Base 2.6.0
 _ZN6KChart14LineAttributes10setVisibleEb@Base 2.6.0
 _ZN6KChart14LineAttributes14setDisplayAreaEb@Base 2.6.0
 _ZN6KChart14LineAttributes15setTransparencyEj@Base 2.6.0
 _ZN6KChart14LineAttributes22setAreaBoundingDatasetEi@Base 2.6.0
 _ZN6KChart14LineAttributes22setMissingValuesPolicyENS0_19MissingValuesPolicyE@Base 2.6.0
 _ZN6KChart14LineAttributesC1ERKS0_@Base 2.6.0
 _ZN6KChart14LineAttributesC1Ev@Base 2.6.0
 _ZN6KChart14LineAttributesC2ERKS0_@Base 2.6.0
 _ZN6KChart14LineAttributesC2Ev@Base 2.6.0
 _ZN6KChart14LineAttributesD1Ev@Base 2.6.0
 _ZN6KChart14LineAttributesD2Ev@Base 2.6.0
 _ZN6KChart14LineAttributesaSERKS0_@Base 2.6.0
 _ZN6KChart14LineLayoutItem11setGeometryERK5QRect@Base 2.6.0
 _ZN6KChart14LineLayoutItem13paintIntoRectEP8QPainterRK5QRectRK4QPen6QFlagsIN2Qt13AlignmentFlagEE@Base 2.6.0
 _ZN6KChart14LineLayoutItem28setLegendLineSymbolAlignmentE6QFlagsIN2Qt13AlignmentFlagEE@Base 2.6.0
 _ZN6KChart14LineLayoutItem5paintEP8QPainter@Base 2.6.0
 _ZN6KChart14LineLayoutItemC1EPNS_15AbstractDiagramEiRK4QPen6QFlagsIN2Qt13AlignmentFlagEES9_@Base 2.6.0
 _ZN6KChart14LineLayoutItemC2EPNS_15AbstractDiagramEiRK4QPen6QFlagsIN2Qt13AlignmentFlagEES9_@Base 2.6.0
 _ZN6KChart14TextAttributes10setVisibleEb@Base 2.6.0
 _ZN6KChart14TextAttributes11setFontSizeERKNS_7MeasureE@Base 2.6.0
 _ZN6KChart14TextAttributes11setRotationEi@Base 2.6.0
 _ZN6KChart14TextAttributes13resetRotationEv@Base 2.6.0
 _ZN6KChart14TextAttributes13setAutoRotateEb@Base 2.6.0
 _ZN6KChart14TextAttributes13setAutoShrinkEb@Base 2.6.0
 _ZN6KChart14TextAttributes15setTextDocumentEP13QTextDocument@Base 2.6.0
 _ZN6KChart14TextAttributes18setMinimalFontSizeERKNS_7MeasureE@Base 2.6.0
 _ZN6KChart14TextAttributes6setPenERK4QPen@Base 2.6.0
 _ZN6KChart14TextAttributes7setFontERK5QFont@Base 2.6.0
 _ZN6KChart14TextAttributesC1ERKS0_@Base 2.6.0
 _ZN6KChart14TextAttributesC1Ev@Base 2.6.0
 _ZN6KChart14TextAttributesC2ERKS0_@Base 2.6.0
 _ZN6KChart14TextAttributesC2Ev@Base 2.6.0
 _ZN6KChart14TextAttributesD1Ev@Base 2.6.0
 _ZN6KChart14TextAttributesD2Ev@Base 2.6.0
 _ZN6KChart14TextAttributesaSERKS0_@Base 2.6.0
 _ZN6KChart14TextLayoutItem11setGeometryERK5QRect@Base 2.6.0
 _ZN6KChart14TextLayoutItem16setTextAlignmentE6QFlagsIN2Qt13AlignmentFlagEE@Base 2.6.0
 _ZN6KChart14TextLayoutItem17setTextAttributesERKNS_14TextAttributesE@Base 2.6.0
 _ZN6KChart14TextLayoutItem20setAutoReferenceAreaEPK7QObject@Base 2.6.0
 _ZN6KChart14TextLayoutItem5paintEP8QPainter@Base 2.6.0
 _ZN6KChart14TextLayoutItem7setTextERK7QString@Base 2.6.0
 _ZN6KChart14TextLayoutItemC1ERK7QStringRKNS_14TextAttributesEPK7QObjectN11KChartEnums18MeasureOrientationE6QFlagsIN2Qt13AlignmentFlagEE@Base 2.6.0
 _ZN6KChart14TextLayoutItemC1Ev@Base 2.6.0
 _ZN6KChart14TextLayoutItemC2ERK7QStringRKNS_14TextAttributesEPK7QObjectN11KChartEnums18MeasureOrientationE6QFlagsIN2Qt13AlignmentFlagEE@Base 2.6.0
 _ZN6KChart14TextLayoutItemC2Ev@Base 2.6.0
 _ZN6KChart15AbstractDiagram10dataHiddenEv@Base 2.6.0
 _ZN6KChart15AbstractDiagram10moveCursorEN17QAbstractItemView12CursorActionE6QFlagsIN2Qt16KeyboardModifierEE@Base 2.6.0
 _ZN6KChart15AbstractDiagram11dataChangedERK11QModelIndexS3_RK7QVectorIiE@Base 2.6.0
 _ZN6KChart15AbstractDiagram11paintMarkerEP8QPainterRK11QModelIndexRK7QPointF@Base 2.6.0
 _ZN6KChart15AbstractDiagram11paintMarkerEP8QPainterRKNS_16MarkerAttributesERK6QBrushRK4QPenRK7QPointFRK6QSizeF@Base 2.6.0
 _ZN6KChart15AbstractDiagram11paintMarkerEP8QPainterRKNS_19DataValueAttributesERK11QModelIndexRK7QPointF@Base 2.6.0
 _ZN6KChart15AbstractDiagram11qt_metacallEN11QMetaObject4CallEiPPv@Base 2.6.0
 _ZN6KChart15AbstractDiagram11qt_metacastEPKc@Base 2.6.0
 _ZN6KChart15AbstractDiagram12paintMarkersEP8QPainter@Base 2.6.0
 _ZN6KChart15AbstractDiagram12setRootIndexERK11QModelIndex@Base 2.6.0
 _ZN6KChart15AbstractDiagram12setSelectionERK5QRect6QFlagsIN19QItemSelectionModel13SelectionFlagEE@Base 2.6.0
 _ZN6KChart15AbstractDiagram13doItemsLayoutEv@Base 2.6.0
 _ZN6KChart15AbstractDiagram13layoutChangedEPS0_@Base 2.6.0
 _ZN6KChart15AbstractDiagram13modelsChangedEv@Base 2.6.0
 _ZN6KChart15AbstractDiagram13setUnitPrefixERK7QStringN2Qt11OrientationE@Base 2.6.0
 _ZN6KChart15AbstractDiagram13setUnitPrefixERK7QStringiN2Qt11OrientationE@Base 2.6.0
 _ZN6KChart15AbstractDiagram13setUnitSuffixERK7QStringN2Qt11OrientationE@Base 2.6.0
 _ZN6KChart15AbstractDiagram13setUnitSuffixERK7QStringiN2Qt11OrientationE@Base 2.6.0
 _ZN6KChart15AbstractDiagram14setPercentModeEb@Base 2.6.0
 _ZN6KChart15AbstractDiagram15setAntiAliasingEb@Base 2.6.0
 _ZN6KChart15AbstractDiagram16modelDataChangedEv@Base 2.6.0
 _ZN6KChart15AbstractDiagram16staticMetaObjectE@Base 2.6.0
 _ZN6KChart15AbstractDiagram16useDefaultColorsEv@Base 2.6.0
 _ZN6KChart15AbstractDiagram16useRainbowColorsEv@Base 2.6.0
 _ZN6KChart15AbstractDiagram16useSubduedColorsEv@Base 2.6.0
 _ZN6KChart15AbstractDiagram17boundariesChangedEv@Base 2.6.0
 _ZN6KChart15AbstractDiagram17propertiesChangedEv@Base 2.6.0
 _ZN6KChart15AbstractDiagram17setSelectionModelEP19QItemSelectionModel@Base 2.6.0
 _ZN6KChart15AbstractDiagram18aboutToBeDestroyedEv@Base 2.6.0
 _ZN6KChart15AbstractDiagram18paintDataValueTextEP8QPainterRK11QModelIndexRK7QPointFd@Base 2.6.0
 _ZN6KChart15AbstractDiagram18setAttributesModelEPNS_15AttributesModelE@Base 2.6.0
 _ZN6KChart15AbstractDiagram18setCoordinatePlaneEPNS_23AbstractCoordinatePlaneE@Base 2.6.0
 _ZN6KChart15AbstractDiagram19paintDataValueTextsEP8QPainter@Base 2.6.0
 _ZN6KChart15AbstractDiagram19setDatasetDimensionEi@Base 2.6.0
 _ZN6KChart15AbstractDiagram22setDataValueAttributesERK11QModelIndexRKNS_19DataValueAttributesE@Base 2.6.0
 _ZN6KChart15AbstractDiagram22setDataValueAttributesERKNS_19DataValueAttributesE@Base 2.6.0
 _ZN6KChart15AbstractDiagram22setDataValueAttributesEiRKNS_19DataValueAttributesE@Base 2.6.0
 _ZN6KChart15AbstractDiagram27setAttributesModelRootIndexERK11QModelIndex@Base 2.6.0
 _ZN6KChart15AbstractDiagram27setDatasetDimensionInternalEi@Base 2.6.0
 _ZN6KChart15AbstractDiagram28attributesModelAboutToChangeEPNS_15AttributesModelES2_@Base 2.6.0
 _ZN6KChart15AbstractDiagram31viewportCoordinateSystemChangedEv@Base 2.6.0
 _ZN6KChart15AbstractDiagram33setAllowOverlappingDataValueTextsEb@Base 2.6.0
 _ZN6KChart15AbstractDiagram4initEv@Base 2.6.0
 _ZN6KChart15AbstractDiagram6resizeERK6QSizeF@Base 2.6.0
 _ZN6KChart15AbstractDiagram6setPenERK11QModelIndexRK4QPen@Base 2.6.0
 _ZN6KChart15AbstractDiagram6setPenERK4QPen@Base 2.6.0
 _ZN6KChart15AbstractDiagram6setPenEiRK4QPen@Base 2.6.0
 _ZN6KChart15AbstractDiagram8scrollToERK11QModelIndexN17QAbstractItemView10ScrollHintE@Base 2.6.0
 _ZN6KChart15AbstractDiagram8setBrushERK11QModelIndexRK6QBrush@Base 2.6.0
 _ZN6KChart15AbstractDiagram8setBrushERK6QBrush@Base 2.6.0
 _ZN6KChart15AbstractDiagram8setBrushEiRK6QBrush@Base 2.6.0
 _ZN6KChart15AbstractDiagram8setModelEP18QAbstractItemModel@Base 2.6.0
 _ZN6KChart15AbstractDiagram9setHiddenERK11QModelIndexb@Base 2.6.0
 _ZN6KChart15AbstractDiagram9setHiddenEb@Base 2.6.0
 _ZN6KChart15AbstractDiagram9setHiddenEib@Base 2.6.0
 _ZN6KChart15AbstractDiagramC1EP7QWidgetPNS_23AbstractCoordinatePlaneE@Base 2.6.0
 _ZN6KChart15AbstractDiagramC2EP7QWidgetPNS_23AbstractCoordinatePlaneE@Base 2.6.0
 _ZN6KChart15AbstractDiagramD0Ev@Base 2.6.0
 _ZN6KChart15AbstractDiagramD1Ev@Base 2.6.0
 _ZN6KChart15AbstractDiagramD2Ev@Base 2.6.0
 _ZN6KChart15AttributesModel11qt_metacallEN11QMetaObject4CallEiPPv@Base 2.6.0
 _ZN6KChart15AttributesModel11qt_metacastEPKc@Base 2.6.0
 _ZN6KChart15AttributesModel12setModelDataE8QVarianti@Base 2.6.0
 _ZN6KChart15AttributesModel13setHeaderDataEiN2Qt11OrientationERK8QVarianti@Base 2.6.0
 _ZN6KChart15AttributesModel14setPaletteTypeENS0_11PaletteTypeE@Base 2.6.0
 _ZN6KChart15AttributesModel14setSourceModelEP18QAbstractItemModel@Base 2.6.0
 _ZN6KChart15AttributesModel15resetHeaderDataEiN2Qt11OrientationEi@Base 2.6.0
 _ZN6KChart15AttributesModel15slotDataChangedERK11QModelIndexS3_@Base 2.6.0
 _ZN6KChart15AttributesModel15slotRowsRemovedERK11QModelIndexii@Base 2.6.0
 _ZN6KChart15AttributesModel16slotRowsInsertedERK11QModelIndexii@Base 2.6.0
 _ZN6KChart15AttributesModel16staticMetaObjectE@Base 2.6.0
 _ZN6KChart15AttributesModel17attributesChangedERK11QModelIndexS3_@Base 2.6.0
 _ZN6KChart15AttributesModel17setDefaultForRoleEiRK8QVariant@Base 2.6.0
 _ZN6KChart15AttributesModel18slotColumnsRemovedERK11QModelIndexii@Base 2.6.0
 _ZN6KChart15AttributesModel19setDatasetDimensionEi@Base 2.6.0
 _ZN6KChart15AttributesModel19slotColumnsInsertedERK11QModelIndexii@Base 2.6.0
 _ZN6KChart15AttributesModel24removeEntriesFromDataMapEii@Base 2.6.0
 _ZN6KChart15AttributesModel24slotRowsAboutToBeRemovedERK11QModelIndexii@Base 2.6.0
 _ZN6KChart15AttributesModel25slotRowsAboutToBeInsertedERK11QModelIndexii@Base 2.6.0
 _ZN6KChart15AttributesModel27slotColumnsAboutToBeRemovedERK11QModelIndexii@Base 2.6.0
 _ZN6KChart15AttributesModel28slotColumnsAboutToBeInsertedERK11QModelIndexii@Base 2.6.0
 _ZN6KChart15AttributesModel34removeEntriesFromDirectionDataMapsEN2Qt11OrientationEii@Base 2.6.0
 _ZN6KChart15AttributesModel7setDataERK11QModelIndexRK8QVarianti@Base 2.6.0
 _ZN6KChart15AttributesModel8initFromEPKS0_@Base 2.6.0
 _ZN6KChart15AttributesModel9resetDataERK11QModelIndexi@Base 2.6.0
 _ZN6KChart15AttributesModelC1EP18QAbstractItemModelP7QObject@Base 2.6.0
 _ZN6KChart15AttributesModelC2EP18QAbstractItemModelP7QObject@Base 2.6.0
 _ZN6KChart15AttributesModelD0Ev@Base 2.6.0
 _ZN6KChart15AttributesModelD1Ev@Base 2.6.0
 _ZN6KChart15AttributesModelD2Ev@Base 2.6.0
 _ZN6KChart15DiagramObserver11qt_metacallEN11QMetaObject4CallEiPPv@Base 2.6.0
 _ZN6KChart15DiagramObserver11qt_metacastEPKc@Base 2.6.0
 _ZN6KChart15DiagramObserver13slotDestroyedEP7QObject@Base 2.6.0
 _ZN6KChart15DiagramObserver14slotDataHiddenEv@Base 2.6.0
 _ZN6KChart15DiagramObserver15slotDataChangedE11QModelIndexS1_@Base 2.6.0
 _ZN6KChart15DiagramObserver15slotDataChangedEv@Base 2.6.0
 _ZN6KChart15DiagramObserver16diagramDestroyedEPNS_15AbstractDiagramE@Base 2.6.0
 _ZN6KChart15DiagramObserver16staticMetaObjectE@Base 2.6.0
 _ZN6KChart15DiagramObserver17diagramDataHiddenEPNS_15AbstractDiagramE@Base 2.6.0
 _ZN6KChart15DiagramObserver17slotModelsChangedEv@Base 2.6.0
 _ZN6KChart15DiagramObserver18diagramDataChangedEPNS_15AbstractDiagramE@Base 2.6.0
 _ZN6KChart15DiagramObserver21slotAttributesChangedE11QModelIndexS1_@Base 2.6.0
 _ZN6KChart15DiagramObserver21slotAttributesChangedEv@Base 2.6.0
 _ZN6KChart15DiagramObserver21slotHeaderDataChangedEN2Qt11OrientationEii@Base 2.6.0
 _ZN6KChart15DiagramObserver22slotAboutToBeDestroyedEv@Base 2.6.0
 _ZN6KChart15DiagramObserver24diagramAttributesChangedEPNS_15AbstractDiagramE@Base 2.6.0
 _ZN6KChart15DiagramObserver25diagramAboutToBeDestroyedEPNS_15AbstractDiagramE@Base 2.6.0
 _ZN6KChart15DiagramObserver4initEv@Base 2.6.0
 _ZN6KChart15DiagramObserver7diagramEv@Base 2.6.0
 _ZN6KChart15DiagramObserverC1EPNS_15AbstractDiagramEP7QObject@Base 2.6.0
 _ZN6KChart15DiagramObserverC2EPNS_15AbstractDiagramEP7QObject@Base 2.6.0
 _ZN6KChart15DiagramObserverD0Ev@Base 2.6.0
 _ZN6KChart15DiagramObserverD1Ev@Base 2.6.0
 _ZN6KChart15DiagramObserverD2Ev@Base 2.6.0
 _ZN6KChart15FrameAttributes10setPaddingEi@Base 2.6.0
 _ZN6KChart15FrameAttributes10setVisibleEb@Base 2.6.0
 _ZN6KChart15FrameAttributes15setCornerRadiusEd@Base 2.6.0
 _ZN6KChart15FrameAttributes6setPenERK4QPen@Base 2.6.0
 _ZN6KChart15FrameAttributesC1ERKS0_@Base 2.6.0
 _ZN6KChart15FrameAttributesC1Ev@Base 2.6.0
 _ZN6KChart15FrameAttributesC2ERKS0_@Base 2.6.0
 _ZN6KChart15FrameAttributesC2Ev@Base 2.6.0
 _ZN6KChart15FrameAttributesD1Ev@Base 2.6.0
 _ZN6KChart15FrameAttributesD2Ev@Base 2.6.0
 _ZN6KChart15FrameAttributesaSERKS0_@Base 2.6.0
 _ZN6KChart15RulerAttributes14setLabelMarginEi@Base 2.6.0
 _ZN6KChart15RulerAttributes14setTickMarkPenERK4QPen@Base 2.6.0
 _ZN6KChart15RulerAttributes14setTickMarkPenEdRK4QPen@Base 2.6.0
 _ZN6KChart15RulerAttributes15setRulerLinePenERK4QPen@Base 2.7.0
 _ZN6KChart15RulerAttributes16setShowFirstTickEb@Base 2.6.0
 _ZN6KChart15RulerAttributes16setShowRulerLineEb@Base 2.6.0
 _ZN6KChart15RulerAttributes16setTickMarkColorERK6QColor@Base 2.6.0
 _ZN6KChart15RulerAttributes19setMajorTickMarkPenERK4QPen@Base 2.6.0
 _ZN6KChart15RulerAttributes19setMinorTickMarkPenERK4QPen@Base 2.6.0
 _ZN6KChart15RulerAttributes21setShowMajorTickMarksEb@Base 2.6.0
 _ZN6KChart15RulerAttributes21setShowMinorTickMarksEb@Base 2.6.0
 _ZN6KChart15RulerAttributes22setMajorTickMarkLengthEi@Base 2.6.0
 _ZN6KChart15RulerAttributes22setMinorTickMarkLengthEi@Base 2.6.0
 _ZN6KChart15RulerAttributesC1ERKS0_@Base 2.6.0
 _ZN6KChart15RulerAttributesC1Ev@Base 2.6.0
 _ZN6KChart15RulerAttributesC2ERKS0_@Base 2.6.0
 _ZN6KChart15RulerAttributesC2Ev@Base 2.6.0
 _ZN6KChart15RulerAttributesD1Ev@Base 2.6.0
 _ZN6KChart15RulerAttributesD2Ev@Base 2.6.0
 _ZN6KChart15RulerAttributesaSERKS0_@Base 2.6.0
 _ZN6KChart16AbstractAreaBase10paintFrameER8QPainterRK5QRect@Base 2.6.0
 _ZN6KChart16AbstractAreaBase15paintBackgroundER8QPainterRK5QRect@Base 2.6.0
 _ZN6KChart16AbstractAreaBase18positionHasChangedEv@Base 2.6.0
 _ZN6KChart16AbstractAreaBase18setFrameAttributesERKNS_15FrameAttributesE@Base 2.6.0
 _ZN6KChart16AbstractAreaBase20paintFrameAttributesER8QPainterRK5QRectRKNS_15FrameAttributesE@Base 2.6.0
 _ZN6KChart16AbstractAreaBase21alignToReferencePointERKNS_16RelativePositionE@Base 2.6.0
 _ZN6KChart16AbstractAreaBase23setBackgroundAttributesERKNS_20BackgroundAttributesE@Base 2.6.0
 _ZN6KChart16AbstractAreaBase25paintBackgroundAttributesER8QPainterRK5QRectRKNS_20BackgroundAttributesE@Base 2.6.0
 _ZN6KChart16AbstractAreaBase4initEv@Base 2.6.0
 _ZN6KChart16AbstractAreaBaseC1Ev@Base 2.6.0
 _ZN6KChart16AbstractAreaBaseC2Ev@Base 2.6.0
 _ZN6KChart16AbstractAreaBaseD0Ev@Base 2.6.0
 _ZN6KChart16AbstractAreaBaseD1Ev@Base 2.6.0
 _ZN6KChart16AbstractAreaBaseD2Ev@Base 2.6.0
 _ZN6KChart16MarkerAttributes10setVisibleEb@Base 2.6.0
 _ZN6KChart16MarkerAttributes13setMarkerSizeERK6QSizeF@Base 2.6.0
 _ZN6KChart16MarkerAttributes14setMarkerColorERK6QColor@Base 2.6.0
 _ZN6KChart16MarkerAttributes14setMarkerStyleEj@Base 2.6.0
 _ZN6KChart16MarkerAttributes17setMarkerSizeModeENS0_14MarkerSizeModeE@Base 2.6.0
 _ZN6KChart16MarkerAttributes18setMarkerStylesMapERK4QMapIjjE@Base 2.6.0
 _ZN6KChart16MarkerAttributes19setCustomMarkerPathERK12QPainterPath@Base 2.6.0
 _ZN6KChart16MarkerAttributes6setPenERK4QPen@Base 2.6.0
 _ZN6KChart16MarkerAttributes9setThreeDEb@Base 2.6.0
 _ZN6KChart16MarkerAttributesC1ERKS0_@Base 2.6.0
 _ZN6KChart16MarkerAttributesC1Ev@Base 2.6.0
 _ZN6KChart16MarkerAttributesC2ERKS0_@Base 2.6.0
 _ZN6KChart16MarkerAttributesC2Ev@Base 2.6.0
 _ZN6KChart16MarkerAttributesD1Ev@Base 2.6.0
 _ZN6KChart16MarkerAttributesD2Ev@Base 2.6.0
 _ZN6KChart16MarkerAttributesaSERKS0_@Base 2.6.0
 _ZN6KChart16MarkerLayoutItem11setGeometryERK5QRect@Base 2.6.0
 _ZN6KChart16MarkerLayoutItem13paintIntoRectEP8QPainterRK5QRectPNS_15AbstractDiagramERKNS_16MarkerAttributesERK6QBrushRK4QPen@Base 2.6.0
 _ZN6KChart16MarkerLayoutItem5paintEP8QPainter@Base 2.6.0
 _ZN6KChart16MarkerLayoutItemC1EPNS_15AbstractDiagramERKNS_16MarkerAttributesERK6QBrushRK4QPen6QFlagsIN2Qt13AlignmentFlagEE@Base 2.6.0
 _ZN6KChart16MarkerLayoutItemC2EPNS_15AbstractDiagramERKNS_16MarkerAttributesERK6QBrushRK4QPen6QFlagsIN2Qt13AlignmentFlagEE@Base 2.6.0
 _ZN6KChart16RelativePosition11setRotationEd@Base 2.6.0
 _ZN6KChart16RelativePosition12setAlignmentE6QFlagsIN2Qt13AlignmentFlagEE@Base 2.6.0
 _ZN6KChart16RelativePosition16setReferenceAreaEP7QObject@Base 2.6.0
 _ZN6KChart16RelativePosition18setReferencePointsERKNS_14PositionPointsE@Base 2.6.0
 _ZN6KChart16RelativePosition18setVerticalPaddingERKNS_7MeasureE@Base 2.6.0
 _ZN6KChart16RelativePosition20setHorizontalPaddingERKNS_7MeasureE@Base 2.6.0
 _ZN6KChart16RelativePosition20setReferencePositionENS_8PositionE@Base 2.6.0
 _ZN6KChart16RelativePosition22resetReferencePositionEv@Base 2.6.0
 _ZN6KChart16RelativePositionC1ERKS0_@Base 2.6.0
 _ZN6KChart16RelativePositionC1Ev@Base 2.6.0
 _ZN6KChart16RelativePositionC2ERKS0_@Base 2.6.0
 _ZN6KChart16RelativePositionC2Ev@Base 2.6.0
 _ZN6KChart16RelativePositionD1Ev@Base 2.6.0
 _ZN6KChart16RelativePositionD2Ev@Base 2.6.0
 _ZN6KChart16RelativePositionaSERKS0_@Base 2.6.0
 _ZN6KChart17DatasetProxyModel11qt_metacallEN11QMetaObject4CallEiPPv@Base 2.6.0
 _ZN6KChart17DatasetProxyModel11qt_metacastEPKc@Base 2.6.0
 _ZN6KChart17DatasetProxyModel14setSourceModelEP18QAbstractItemModel@Base 2.6.0
 _ZN6KChart17DatasetProxyModel16staticMetaObjectE@Base 2.6.0
 _ZN6KChart17DatasetProxyModel18setSourceRootIndexERK11QModelIndex@Base 2.6.0
 _ZN6KChart17DatasetProxyModel24resetDatasetDescriptionsEv@Base 2.6.0
 _ZN6KChart17DatasetProxyModel27initializeDatasetDecriptorsERK7QVectorIiEiRS2_S5_@Base 2.6.0
 _ZN6KChart17DatasetProxyModel28setDatasetDescriptionVectorsERK7QVectorIiES4_@Base 2.6.0
 _ZN6KChart17DatasetProxyModel30setDatasetRowDescriptionVectorERK7QVectorIiE@Base 2.6.0
 _ZN6KChart17DatasetProxyModel33setDatasetColumnDescriptionVectorERK7QVectorIiE@Base 2.6.0
 _ZN6KChart17DatasetProxyModel7setDataERK11QModelIndexRK8QVarianti@Base 2.6.0
 _ZN6KChart17DatasetProxyModelC1EP7QObject@Base 2.6.0
 _ZN6KChart17DatasetProxyModelC2EP7QObject@Base 2.6.0
 _ZN6KChart17LeveyJenningsAxis11qt_metacallEN11QMetaObject4CallEiPPv@Base 2.6.0
 _ZN6KChart17LeveyJenningsAxis11qt_metacastEPKc@Base 2.6.0
 _ZN6KChart17LeveyJenningsAxis13setDateFormatEN2Qt10DateFormatE@Base 2.6.0
 _ZN6KChart17LeveyJenningsAxis15paintAsAbscissaEPNS_12PaintContextE@Base 2.6.0
 _ZN6KChart17LeveyJenningsAxis15paintAsOrdinateEPNS_12PaintContextE@Base 2.6.0
 _ZN6KChart17LeveyJenningsAxis16staticMetaObjectE@Base 2.6.0
 _ZN6KChart17LeveyJenningsAxis4initEv@Base 2.6.0
 _ZN6KChart17LeveyJenningsAxis7setTypeENS_27LeveyJenningsGridAttributes8GridTypeE@Base 2.6.0
 _ZN6KChart17LeveyJenningsAxis8paintCtxEPNS_12PaintContextE@Base 2.6.0
 _ZN6KChart17LeveyJenningsAxisC1EPNS_20LeveyJenningsDiagramE@Base 2.6.0
 _ZN6KChart17LeveyJenningsAxisC2EPNS_20LeveyJenningsDiagramE@Base 2.6.0
 _ZN6KChart17LeveyJenningsAxisD0Ev@Base 2.6.0
 _ZN6KChart17LeveyJenningsAxisD1Ev@Base 2.6.0
 _ZN6KChart17LeveyJenningsAxisD2Ev@Base 2.6.0
 _ZN6KChart18AbstractAreaWidget10paintEventEP11QPaintEvent@Base 2.6.0
 _ZN6KChart18AbstractAreaWidget11qt_metacallEN11QMetaObject4CallEiPPv@Base 2.6.0
 _ZN6KChart18AbstractAreaWidget11qt_metacastEPKc@Base 2.6.0
 _ZN6KChart18AbstractAreaWidget12forceRebuildEv@Base 2.6.0
 _ZN6KChart18AbstractAreaWidget12needSizeHintEv@Base 2.6.0
 _ZN6KChart18AbstractAreaWidget12resizeLayoutERK5QSize@Base 2.6.0
 _ZN6KChart18AbstractAreaWidget13paintIntoRectER8QPainterRK5QRect@Base 2.6.0
 _ZN6KChart18AbstractAreaWidget15positionChangedEPS0_@Base 2.6.0
 _ZN6KChart18AbstractAreaWidget16staticMetaObjectE@Base 2.6.0
 _ZN6KChart18AbstractAreaWidget18positionHasChangedEv@Base 2.6.0
 _ZN6KChart18AbstractAreaWidget4initEv@Base 2.6.0
 _ZN6KChart18AbstractAreaWidget8paintAllER8QPainter@Base 2.6.0
 _ZN6KChart18AbstractAreaWidgetC1EP7QWidget@Base 2.6.0
 _ZN6KChart18AbstractAreaWidgetC2EP7QWidget@Base 2.6.0
 _ZN6KChart18AbstractAreaWidgetD0Ev@Base 2.6.0
 _ZN6KChart18AbstractAreaWidgetD1Ev@Base 2.6.0
 _ZN6KChart18AbstractAreaWidgetD2Ev@Base 2.6.0
 _ZN6KChart18AbstractLayoutItem15setParentWidgetEP7QWidget@Base 2.6.0
 _ZN6KChart18AbstractLayoutItem8paintAllER8QPainter@Base 2.6.0
 _ZN6KChart18AbstractLayoutItem8paintCtxEPNS_12PaintContextE@Base 2.6.0
 _ZN6KChart18AbstractPieDiagram11qt_metacallEN11QMetaObject4CallEiPPv@Base 2.6.0
 _ZN6KChart18AbstractPieDiagram11qt_metacastEPKc@Base 2.6.0
 _ZN6KChart18AbstractPieDiagram14setGranularityEd@Base 2.6.0
 _ZN6KChart18AbstractPieDiagram16setPieAttributesERK11QModelIndexRKNS_13PieAttributesE@Base 2.6.0
 _ZN6KChart18AbstractPieDiagram16setPieAttributesERKNS_13PieAttributesE@Base 2.6.0
 _ZN6KChart18AbstractPieDiagram16setPieAttributesEiRKNS_13PieAttributesE@Base 2.6.0
 _ZN6KChart18AbstractPieDiagram16setStartPositionEi@Base 2.6.0
 _ZN6KChart18AbstractPieDiagram16staticMetaObjectE@Base 2.6.0
 _ZN6KChart18AbstractPieDiagram19setAutoRotateLabelsEb@Base 2.6.0
 _ZN6KChart18AbstractPieDiagram22setThreeDPieAttributesERK11QModelIndexRKNS_19ThreeDPieAttributesE@Base 2.6.0
 _ZN6KChart18AbstractPieDiagram22setThreeDPieAttributesERKNS_19ThreeDPieAttributesE@Base 2.6.0
 _ZN6KChart18AbstractPieDiagram22setThreeDPieAttributesEiRKNS_19ThreeDPieAttributesE@Base 2.6.0
 _ZN6KChart18AbstractPieDiagram4initEv@Base 2.6.0
 _ZN6KChart18AbstractPieDiagramC1EP7QWidgetPNS_20PolarCoordinatePlaneE@Base 2.6.0
 _ZN6KChart18AbstractPieDiagramC2EP7QWidgetPNS_20PolarCoordinatePlaneE@Base 2.6.0
 _ZN6KChart18AbstractPieDiagramD0Ev@Base 2.6.0
 _ZN6KChart18AbstractPieDiagramD1Ev@Base 2.6.0
 _ZN6KChart18AbstractPieDiagramD2Ev@Base 2.6.0
 _ZN6KChart18AbstractProxyModel11qt_metacallEN11QMetaObject4CallEiPPv@Base 2.6.0
 _ZN6KChart18AbstractProxyModel11qt_metacastEPKc@Base 2.6.0
 _ZN6KChart18AbstractProxyModel16staticMetaObjectE@Base 2.6.0
 _ZN6KChart18AbstractProxyModelC1EP7QObject@Base 2.6.0
 _ZN6KChart18AbstractProxyModelC2EP7QObject@Base 2.6.0
 _ZN6KChart18StockBarAttributes13setTickLengthEd@Base 2.6.0
 _ZN6KChart18StockBarAttributes19setCandlestickWidthEd@Base 2.6.0
 _ZN6KChart18StockBarAttributesC1ERKS0_@Base 2.6.0
 _ZN6KChart18StockBarAttributesC1Ev@Base 2.6.0
 _ZN6KChart18StockBarAttributesC2ERKS0_@Base 2.6.0
 _ZN6KChart18StockBarAttributesC2Ev@Base 2.6.0
 _ZN6KChart18StockBarAttributesD1Ev@Base 2.6.0
 _ZN6KChart18StockBarAttributesD2Ev@Base 2.6.0
 _ZN6KChart18StockBarAttributesaSERKS0_@Base 2.6.0
 _ZN6KChart18TernaryLineDiagram11qt_metacallEN11QMetaObject4CallEiPPv@Base 2.6.0
 _ZN6KChart18TernaryLineDiagram11qt_metacastEPKc@Base 2.6.0
 _ZN6KChart18TernaryLineDiagram16staticMetaObjectE@Base 2.6.0
 _ZN6KChart18TernaryLineDiagram4initEv@Base 2.6.0
 _ZN6KChart18TernaryLineDiagram5paintEPNS_12PaintContextE@Base 2.6.0
 _ZN6KChart18TernaryLineDiagram6resizeERK6QSizeF@Base 2.6.0
 _ZN6KChart18TernaryLineDiagramC1EP7QWidgetPNS_22TernaryCoordinatePlaneE@Base 2.6.0
 _ZN6KChart18TernaryLineDiagramC2EP7QWidgetPNS_22TernaryCoordinatePlaneE@Base 2.6.0
 _ZN6KChart18TernaryLineDiagramD0Ev@Base 2.6.0
 _ZN6KChart18TernaryLineDiagramD1Ev@Base 2.6.0
 _ZN6KChart18TernaryLineDiagramD2Ev@Base 2.6.0
 _ZN6KChart19DataValueAttributes10setVisibleEb@Base 2.6.0
 _ZN6KChart19DataValueAttributes12setDataLabelE7QString@Base 2.6.0
 _ZN6KChart19DataValueAttributes15setShowInfiniteEb@Base 2.6.0
 _ZN6KChart19DataValueAttributes16setDecimalDigitsEi@Base 2.6.0
 _ZN6KChart19DataValueAttributes16setUsePercentageEb@Base 2.6.0
 _ZN6KChart19DataValueAttributes17defaultAttributesEv@Base 2.6.0
 _ZN6KChart19DataValueAttributes17setTextAttributesERKNS_14TextAttributesE@Base 2.6.0
 _ZN6KChart19DataValueAttributes18setFrameAttributesERKNS_15FrameAttributesE@Base 2.6.0
 _ZN6KChart19DataValueAttributes19setMarkerAttributesERKNS_16MarkerAttributesE@Base 2.6.0
 _ZN6KChart19DataValueAttributes19setNegativePositionERKNS_16RelativePositionE@Base 2.6.0
 _ZN6KChart19DataValueAttributes19setPositivePositionERKNS_16RelativePositionE@Base 2.6.0
 _ZN6KChart19DataValueAttributes20setPowerOfTenDivisorEi@Base 2.6.0
 _ZN6KChart19DataValueAttributes23setBackgroundAttributesERKNS_20BackgroundAttributesE@Base 2.6.0
 _ZN6KChart19DataValueAttributes26defaultAttributesAsVariantEv@Base 2.6.0
 _ZN6KChart19DataValueAttributes27setShowRepetitiveDataLabelsEb@Base 2.6.0
 _ZN6KChart19DataValueAttributes28setShowOverlappingDataLabelsEb@Base 2.6.0
 _ZN6KChart19DataValueAttributes34setMirrorNegativeValueTextRotationEb@Base 2.6.0
 _ZN6KChart19DataValueAttributes9setPrefixE7QString@Base 2.6.0
 _ZN6KChart19DataValueAttributes9setSuffixE7QString@Base 2.6.0
 _ZN6KChart19DataValueAttributesC1ERKS0_@Base 2.6.0
 _ZN6KChart19DataValueAttributesC1Ev@Base 2.6.0
 _ZN6KChart19DataValueAttributesC2ERKS0_@Base 2.6.0
 _ZN6KChart19DataValueAttributesC2Ev@Base 2.6.0
 _ZN6KChart19DataValueAttributesD1Ev@Base 2.6.0
 _ZN6KChart19DataValueAttributesD2Ev@Base 2.6.0
 _ZN6KChart19DataValueAttributesaSERKS0_@Base 2.6.0
 _ZN6KChart19TernaryPointDiagram11qt_metacallEN11QMetaObject4CallEiPPv@Base 2.6.0
 _ZN6KChart19TernaryPointDiagram11qt_metacastEPKc@Base 2.6.0
 _ZN6KChart19TernaryPointDiagram16staticMetaObjectE@Base 2.6.0
 _ZN6KChart19TernaryPointDiagram4initEv@Base 2.6.0
 _ZN6KChart19TernaryPointDiagram5paintEPNS_12PaintContextE@Base 2.6.0
 _ZN6KChart19TernaryPointDiagram6resizeERK6QSizeF@Base 2.6.0
 _ZN6KChart19TernaryPointDiagramC1EP7QWidgetPNS_22TernaryCoordinatePlaneE@Base 2.6.0
 _ZN6KChart19TernaryPointDiagramC2EP7QWidgetPNS_22TernaryCoordinatePlaneE@Base 2.6.0
 _ZN6KChart19TernaryPointDiagramD0Ev@Base 2.6.0
 _ZN6KChart19TernaryPointDiagramD1Ev@Base 2.6.0
 _ZN6KChart19TernaryPointDiagramD2Ev@Base 2.6.0
 _ZN6KChart19ThreeDBarAttributes18setUseShadowColorsEb@Base 2.6.0
 _ZN6KChart19ThreeDBarAttributes4initEv@Base 2.6.0
 _ZN6KChart19ThreeDBarAttributes8setAngleEj@Base 2.6.0
 _ZN6KChart19ThreeDBarAttributesC1ERKS0_@Base 2.6.0
 _ZN6KChart19ThreeDBarAttributesC1Ev@Base 2.6.0
 _ZN6KChart19ThreeDBarAttributesC2ERKS0_@Base 2.6.0
 _ZN6KChart19ThreeDBarAttributesC2Ev@Base 2.6.0
 _ZN6KChart19ThreeDBarAttributesD0Ev@Base 2.6.0
 _ZN6KChart19ThreeDBarAttributesD1Ev@Base 2.6.0
 _ZN6KChart19ThreeDBarAttributesD2Ev@Base 2.6.0
 _ZN6KChart19ThreeDBarAttributesaSERKS0_@Base 2.6.0
 _ZN6KChart19ThreeDPieAttributes18setUseShadowColorsEb@Base 2.6.0
 _ZN6KChart19ThreeDPieAttributes4initEv@Base 2.6.0
 _ZN6KChart19ThreeDPieAttributesC1ERKS0_@Base 2.6.0
 _ZN6KChart19ThreeDPieAttributesC1Ev@Base 2.6.0
 _ZN6KChart19ThreeDPieAttributesC2ERKS0_@Base 2.6.0
 _ZN6KChart19ThreeDPieAttributesC2Ev@Base 2.6.0
 _ZN6KChart19ThreeDPieAttributesD0Ev@Base 2.6.0
 _ZN6KChart19ThreeDPieAttributesD1Ev@Base 2.6.0
 _ZN6KChart19ThreeDPieAttributesD2Ev@Base 2.6.0
 _ZN6KChart19ThreeDPieAttributesaSERKS0_@Base 2.6.0
 _ZN6KChart20AbstractPolarDiagram11qt_metacallEN11QMetaObject4CallEiPPv@Base 2.6.0
 _ZN6KChart20AbstractPolarDiagram11qt_metacastEPKc@Base 2.6.0
 _ZN6KChart20AbstractPolarDiagram16staticMetaObjectE@Base 2.6.0
 _ZN6KChart20AbstractPolarDiagram4initEv@Base 2.6.0
 _ZN6KChart20AbstractPolarDiagramC1EP7QWidgetPNS_20PolarCoordinatePlaneE@Base 2.6.0
 _ZN6KChart20AbstractPolarDiagramC2EP7QWidgetPNS_20PolarCoordinatePlaneE@Base 2.6.0
 _ZN6KChart20AutoSpacerLayoutItem11setGeometryERK5QRect@Base 2.6.0
 _ZN6KChart20AutoSpacerLayoutItem5paintEP8QPainter@Base 2.6.0
 _ZN6KChart20AutoSpacerLayoutItemC1EbP11QHBoxLayoutbP11QVBoxLayout@Base 2.6.0
 _ZN6KChart20AutoSpacerLayoutItemC2EbP11QHBoxLayoutbP11QVBoxLayout@Base 2.6.0
 _ZN6KChart20BackgroundAttributes10setVisibleEb@Base 2.6.0
 _ZN6KChart20BackgroundAttributes13setPixmapModeENS0_20BackgroundPixmapModeE@Base 2.6.0
 _ZN6KChart20BackgroundAttributes8setBrushERK6QBrush@Base 2.6.0
 _ZN6KChart20BackgroundAttributes9setPixmapERK7QPixmap@Base 2.6.0
 _ZN6KChart20BackgroundAttributesC1ERKS0_@Base 2.6.0
 _ZN6KChart20BackgroundAttributesC1Ev@Base 2.6.0
 _ZN6KChart20BackgroundAttributesC2ERKS0_@Base 2.6.0
 _ZN6KChart20BackgroundAttributesC2Ev@Base 2.6.0
 _ZN6KChart20BackgroundAttributesD1Ev@Base 2.6.0
 _ZN6KChart20BackgroundAttributesD2Ev@Base 2.6.0
 _ZN6KChart20BackgroundAttributesaSERKS0_@Base 2.6.0
 _ZN6KChart20LeveyJenningsDiagram11drawChangesEPNS_12PaintContextE@Base 2.6.0
 _ZN6KChart20LeveyJenningsDiagram11qt_metacallEN11QMetaObject4CallEiPPv@Base 2.6.0
 _ZN6KChart20LeveyJenningsDiagram11qt_metacastEPKc@Base 2.6.0
 _ZN6KChart20LeveyJenningsDiagram12iconRendererENS0_6SymbolE@Base 2.6.0
 _ZN6KChart20LeveyJenningsDiagram12setTimeRangeERK5QPairI9QDateTimeS2_E@Base 2.6.0
 _ZN6KChart20LeveyJenningsDiagram14setScanLinePenERK4QPen@Base 2.6.0
 _ZN6KChart20LeveyJenningsDiagram16setSensorChangesERK7QVectorI9QDateTimeE@Base 2.6.0
 _ZN6KChart20LeveyJenningsDiagram16staticMetaObjectE@Base 2.6.0
 _ZN6KChart20LeveyJenningsDiagram19drawDataPointSymbolEPNS_12PaintContextERK7QPointFb@Base 2.6.0
 _ZN6KChart20LeveyJenningsDiagram19drawLotChangeSymbolEPNS_12PaintContextERK7QPointF@Base 2.6.0
 _ZN6KChart20LeveyJenningsDiagram20setExpectedMeanValueEf@Base 2.6.0
 _ZN6KChart20LeveyJenningsDiagram22setFluidicsPackChangesERK7QVectorI9QDateTimeE@Base 2.6.0
 _ZN6KChart20LeveyJenningsDiagram23drawSensorChangedSymbolEPNS_12PaintContextERK7QPointF@Base 2.6.0
 _ZN6KChart20LeveyJenningsDiagram27setLotChangedSymbolPositionE6QFlagsIN2Qt13AlignmentFlagEE@Base 2.6.0
 _ZN6KChart20LeveyJenningsDiagram28setExpectedStandardDeviationEf@Base 2.6.0
 _ZN6KChart20LeveyJenningsDiagram29drawFluidicsPackChangedSymbolEPNS_12PaintContextERK7QPointF@Base 2.6.0
 _ZN6KChart20LeveyJenningsDiagram30setSensorChangedSymbolPositionE6QFlagsIN2Qt13AlignmentFlagEE@Base 2.6.0
 _ZN6KChart20LeveyJenningsDiagram36setFluidicsPackChangedSymbolPositionE6QFlagsIN2Qt13AlignmentFlagEE@Base 2.6.0
 _ZN6KChart20LeveyJenningsDiagram4initEv@Base 2.6.0
 _ZN6KChart20LeveyJenningsDiagram5paintEPNS_12PaintContextE@Base 2.6.0
 _ZN6KChart20LeveyJenningsDiagram8setModelEP18QAbstractItemModel@Base 2.6.0
 _ZN6KChart20LeveyJenningsDiagram9setSymbolENS0_6SymbolERK7QString@Base 2.6.0
 _ZN6KChart20LeveyJenningsDiagramC1EP7QWidgetPNS_28LeveyJenningsCoordinatePlaneE@Base 2.6.0
 _ZN6KChart20LeveyJenningsDiagramC2EP7QWidgetPNS_28LeveyJenningsCoordinatePlaneE@Base 2.6.0
 _ZN6KChart20LeveyJenningsDiagramD0Ev@Base 2.6.0
 _ZN6KChart20LeveyJenningsDiagramD1Ev@Base 2.6.0
 _ZN6KChart20LeveyJenningsDiagramD2Ev@Base 2.6.0
 _ZN6KChart20PolarCoordinatePlane10addDiagramEPNS_15AbstractDiagramE@Base 2.6.0
 _ZN6KChart20PolarCoordinatePlane11qt_metacallEN11QMetaObject4CallEiPPv@Base 2.6.0
 _ZN6KChart20PolarCoordinatePlane11qt_metacastEPKc@Base 2.6.0
 _ZN6KChart20PolarCoordinatePlane11resizeEventEP12QResizeEvent@Base 2.6.0
 _ZN6KChart20PolarCoordinatePlane13setZoomCenterERK7QPointF@Base 2.6.0
 _ZN6KChart20PolarCoordinatePlane14layoutDiagramsEv@Base 2.6.0
 _ZN6KChart20PolarCoordinatePlane14setZoomFactorXEd@Base 2.6.0
 _ZN6KChart20PolarCoordinatePlane14setZoomFactorYEd@Base 2.6.0
 _ZN6KChart20PolarCoordinatePlane14setZoomFactorsEdd@Base 2.6.0
 _ZN6KChart20PolarCoordinatePlane16setStartPositionEd@Base 2.6.0
 _ZN6KChart20PolarCoordinatePlane16staticMetaObjectE@Base 2.6.0
 _ZN6KChart20PolarCoordinatePlane17setGridAttributesEbRKNS_14GridAttributesE@Base 2.6.0
 _ZN6KChart20PolarCoordinatePlane17slotLayoutChangedEPNS_15AbstractDiagramE@Base 2.6.0
 _ZN6KChart20PolarCoordinatePlane19resetGridAttributesEb@Base 2.6.0
 _ZN6KChart20PolarCoordinatePlane20adjustZoomAndRepaintEv@Base 2.6.0
 _ZN6KChart20PolarCoordinatePlane23setHasOwnGridAttributesEbb@Base 2.6.0
 _ZN6KChart20PolarCoordinatePlane4initEv@Base 2.6.0
 _ZN6KChart20PolarCoordinatePlane5paintEP8QPainter@Base 2.6.0
 _ZN6KChart20PolarCoordinatePlaneC1EPNS_5ChartE@Base 2.6.0
 _ZN6KChart20PolarCoordinatePlaneC2EPNS_5ChartE@Base 2.6.0
 _ZN6KChart20PolarCoordinatePlaneD0Ev@Base 2.6.0
 _ZN6KChart20PolarCoordinatePlaneD1Ev@Base 2.6.0
 _ZN6KChart20PolarCoordinatePlaneD2Ev@Base 2.6.0
 _ZN6KChart20RadarCoordinatePlane11qt_metacallEN11QMetaObject4CallEiPPv@Base 2.6.0
 _ZN6KChart20RadarCoordinatePlane11qt_metacastEPKc@Base 2.6.0
 _ZN6KChart20RadarCoordinatePlane16staticMetaObjectE@Base 2.6.0
 _ZN6KChart20RadarCoordinatePlane17setTextAttributesERKNS_14TextAttributesE@Base 2.6.0
 _ZN6KChart20RadarCoordinatePlane4initEv@Base 2.6.0
 _ZN6KChart20RadarCoordinatePlaneC1EPNS_5ChartE@Base 2.6.0
 _ZN6KChart20RadarCoordinatePlaneC2EPNS_5ChartE@Base 2.6.0
 _ZN6KChart20RadarCoordinatePlaneD0Ev@Base 2.6.0
 _ZN6KChart20RadarCoordinatePlaneD1Ev@Base 2.6.0
 _ZN6KChart20RadarCoordinatePlaneD2Ev@Base 2.6.0
 _ZN6KChart20TextBubbleLayoutItem11setGeometryERK5QRect@Base 2.6.0
 _ZN6KChart20TextBubbleLayoutItem17setTextAttributesERKNS_14TextAttributesE@Base 2.6.0
 _ZN6KChart20TextBubbleLayoutItem20setAutoReferenceAreaEPK7QObject@Base 2.6.0
 _ZN6KChart20TextBubbleLayoutItem5paintEP8QPainter@Base 2.6.0
 _ZN6KChart20TextBubbleLayoutItem7setTextERK7QString@Base 2.6.0
 _ZN6KChart20TextBubbleLayoutItemC1ERK7QStringRKNS_14TextAttributesEPK7QObjectN11KChartEnums18MeasureOrientationE6QFlagsIN2Qt13AlignmentFlagEE@Base 2.6.0
 _ZN6KChart20TextBubbleLayoutItemC1Ev@Base 2.6.0
 _ZN6KChart20TextBubbleLayoutItemC2ERK7QStringRKNS_14TextAttributesEPK7QObjectN11KChartEnums18MeasureOrientationE6QFlagsIN2Qt13AlignmentFlagEE@Base 2.6.0
 _ZN6KChart20TextBubbleLayoutItemC2Ev@Base 2.6.0
 _ZN6KChart20TextBubbleLayoutItemD0Ev@Base 2.6.0
 _ZN6KChart20TextBubbleLayoutItemD1Ev@Base 2.6.0
 _ZN6KChart20TextBubbleLayoutItemD2Ev@Base 2.6.0
 _ZN6KChart20ThreeDLineAttributes16setLineXRotationEj@Base 2.6.0
 _ZN6KChart20ThreeDLineAttributes16setLineYRotationEj@Base 2.6.0
 _ZN6KChart20ThreeDLineAttributes4initEv@Base 2.6.0
 _ZN6KChart20ThreeDLineAttributesC1ERKS0_@Base 2.6.0
 _ZN6KChart20ThreeDLineAttributesC1Ev@Base 2.6.0
 _ZN6KChart20ThreeDLineAttributesC2ERKS0_@Base 2.6.0
 _ZN6KChart20ThreeDLineAttributesC2Ev@Base 2.6.0
 _ZN6KChart20ThreeDLineAttributesD0Ev@Base 2.6.0
 _ZN6KChart20ThreeDLineAttributesD1Ev@Base 2.6.0
 _ZN6KChart20ThreeDLineAttributesD2Ev@Base 2.6.0
 _ZN6KChart20ThreeDLineAttributesaSERKS0_@Base 2.6.0
 _ZN6KChart21DatasetSelectorWidget11qt_metacallEN11QMetaObject4CallEiPPv@Base 2.6.0
 _ZN6KChart21DatasetSelectorWidget11qt_metacastEPKc@Base 2.6.0
 _ZN6KChart21DatasetSelectorWidget11updateStateEb@Base 2.7.0
 _ZN6KChart21DatasetSelectorWidget15mappingDisabledEv@Base 2.6.0
 _ZN6KChart21DatasetSelectorWidget16calculateMappingEv@Base 2.6.0
 _ZN6KChart21DatasetSelectorWidget16staticMetaObjectE@Base 2.6.0
 _ZN6KChart21DatasetSelectorWidget17setSourceRowCountERKi@Base 2.6.0
 _ZN6KChart21DatasetSelectorWidget18resetDisplayValuesEv@Base 2.6.0
 _ZN6KChart21DatasetSelectorWidget20setSourceColumnCountERKi@Base 2.6.0
 _ZN6KChart21DatasetSelectorWidget26configureDatasetProxyModelERK7QVectorIiES4_@Base 2.6.0
 _ZN6KChart21DatasetSelectorWidgetC1EP7QWidget@Base 2.6.0
 _ZN6KChart21DatasetSelectorWidgetC2EP7QWidget@Base 2.6.0
 _ZN6KChart21DatasetSelectorWidgetD0Ev@Base 2.6.0
 _ZN6KChart21DatasetSelectorWidgetD1Ev@Base 2.6.0
 _ZN6KChart21DatasetSelectorWidgetD2Ev@Base 2.6.0
 _ZN6KChart21ModelDataCachePrivate26ModelSignalMapperConnector10modelResetEv@Base 2.6.0
 _ZN6KChart21ModelDataCachePrivate26ModelSignalMapperConnector10resetModelEv@Base 2.6.0
 _ZN6KChart21ModelDataCachePrivate26ModelSignalMapperConnector11dataChangedERK11QModelIndexS4_@Base 2.6.0
 _ZN6KChart21ModelDataCachePrivate26ModelSignalMapperConnector11qt_metacallEN11QMetaObject4CallEiPPv@Base 2.6.0
 _ZN6KChart21ModelDataCachePrivate26ModelSignalMapperConnector11qt_metacastEPKc@Base 2.6.0
 _ZN6KChart21ModelDataCachePrivate26ModelSignalMapperConnector11rowsRemovedERK11QModelIndexii@Base 2.6.0
 _ZN6KChart21ModelDataCachePrivate26ModelSignalMapperConnector12rowsInsertedERK11QModelIndexii@Base 2.6.0
 _ZN6KChart21ModelDataCachePrivate26ModelSignalMapperConnector13layoutChangedEv@Base 2.6.0
 _ZN6KChart21ModelDataCachePrivate26ModelSignalMapperConnector14columnsRemovedERK11QModelIndexii@Base 2.6.0
 _ZN6KChart21ModelDataCachePrivate26ModelSignalMapperConnector14connectSignalsEP18QAbstractItemModel@Base 2.6.0
 _ZN6KChart21ModelDataCachePrivate26ModelSignalMapperConnector15columnsInsertedERK11QModelIndexii@Base 2.6.0
 _ZN6KChart21ModelDataCachePrivate26ModelSignalMapperConnector16staticMetaObjectE@Base 2.6.0
 _ZN6KChart21ModelDataCachePrivate26ModelSignalMapperConnector17disconnectSignalsEP18QAbstractItemModel@Base 2.6.0
 _ZN6KChart21ModelDataCachePrivate26ModelSignalMapperConnectorC1ERNS0_17ModelSignalMapperE@Base 2.6.0
 _ZN6KChart21ModelDataCachePrivate26ModelSignalMapperConnectorC2ERNS0_17ModelSignalMapperE@Base 2.6.0
 _ZN6KChart21ModelDataCachePrivate26ModelSignalMapperConnectorD0Ev@Base 2.6.0
 _ZN6KChart21ModelDataCachePrivate26ModelSignalMapperConnectorD1Ev@Base 2.6.0
 _ZN6KChart21ModelDataCachePrivate26ModelSignalMapperConnectorD2Ev@Base 2.6.0
 _ZN6KChart22AbstractTernaryDiagram11qt_metacallEN11QMetaObject4CallEiPPv@Base 2.6.0
 _ZN6KChart22AbstractTernaryDiagram11qt_metacastEPKc@Base 2.6.0
 _ZN6KChart22AbstractTernaryDiagram16staticMetaObjectE@Base 2.6.0
 _ZN6KChart22AbstractTernaryDiagram4initEv@Base 2.6.0
 _ZN6KChart22AbstractTernaryDiagram5paintEPNS_12PaintContextE@Base 2.6.0
 _ZN6KChart22AbstractTernaryDiagram7addAxisEPNS_11TernaryAxisE@Base 2.6.0
 _ZN6KChart22AbstractTernaryDiagram8takeAxisEPNS_11TernaryAxisE@Base 2.6.0
 _ZN6KChart22AbstractTernaryDiagramC1EP7QWidgetPNS_22TernaryCoordinatePlaneE@Base 2.6.0
 _ZN6KChart22AbstractTernaryDiagramC2EP7QWidgetPNS_22TernaryCoordinatePlaneE@Base 2.6.0
 _ZN6KChart22AbstractTernaryDiagramD0Ev@Base 2.6.0
 _ZN6KChart22AbstractTernaryDiagramD1Ev@Base 2.6.0
 _ZN6KChart22AbstractTernaryDiagramD2Ev@Base 2.6.0
 _ZN6KChart22TernaryCoordinatePlane10addDiagramEPNS_15AbstractDiagramE@Base 2.6.0
 _ZN6KChart22TernaryCoordinatePlane11qt_metacallEN11QMetaObject4CallEiPPv@Base 2.6.0
 _ZN6KChart22TernaryCoordinatePlane11qt_metacastEPKc@Base 2.6.0
 _ZN6KChart22TernaryCoordinatePlane14layoutDiagramsEv@Base 2.6.0
 _ZN6KChart22TernaryCoordinatePlane16staticMetaObjectE@Base 2.6.0
 _ZN6KChart22TernaryCoordinatePlane4initEv@Base 2.6.0
 _ZN6KChart22TernaryCoordinatePlane5paintEP8QPainter@Base 2.6.0
 _ZN6KChart22TernaryCoordinatePlaneC1EPNS_5ChartE@Base 2.6.0
 _ZN6KChart22TernaryCoordinatePlaneC2EPNS_5ChartE@Base 2.6.0
 _ZN6KChart22TernaryCoordinatePlaneD0Ev@Base 2.6.0
 _ZN6KChart22TernaryCoordinatePlaneD1Ev@Base 2.6.0
 _ZN6KChart22TernaryCoordinatePlaneD2Ev@Base 2.6.0
 _ZN6KChart22ValueTrackerAttributes10setEnabledEb@Base 2.6.0
 _ZN6KChart22ValueTrackerAttributes10setLinePenERK4QPen@Base 2.6.0
 _ZN6KChart22ValueTrackerAttributes12setAreaBrushERK6QBrush@Base 2.6.0
 _ZN6KChart22ValueTrackerAttributes12setMarkerPenERK4QPen@Base 2.6.0
 _ZN6KChart22ValueTrackerAttributes13setArrowBrushERK6QBrush@Base 2.6.0
 _ZN6KChart22ValueTrackerAttributes13setMarkerSizeERK6QSizeF@Base 2.6.0
 _ZN6KChart22ValueTrackerAttributes14setMarkerBrushERK6QBrush@Base 2.6.0
 _ZN6KChart22ValueTrackerAttributes15setOrientationsE6QFlagsIN2Qt11OrientationEE@Base 2.6.0
 _ZN6KChart22ValueTrackerAttributes6setPenERK4QPen@Base 2.6.0
 _ZN6KChart22ValueTrackerAttributesC1ERKS0_@Base 2.6.0
 _ZN6KChart22ValueTrackerAttributesC1Ev@Base 2.6.0
 _ZN6KChart22ValueTrackerAttributesC2ERKS0_@Base 2.6.0
 _ZN6KChart22ValueTrackerAttributesC2Ev@Base 2.6.0
 _ZN6KChart22ValueTrackerAttributesD1Ev@Base 2.6.0
 _ZN6KChart22ValueTrackerAttributesD2Ev@Base 2.6.0
 _ZN6KChart22ValueTrackerAttributesaSERKS0_@Base 2.6.0
 _ZN6KChart22VerticalLineLayoutItem11setGeometryERK5QRect@Base 2.6.0
 _ZN6KChart22VerticalLineLayoutItem5paintEP8QPainter@Base 2.6.0
 _ZN6KChart22VerticalLineLayoutItemC1Ev@Base 2.6.0
 _ZN6KChart22VerticalLineLayoutItemC2Ev@Base 2.6.0
 _ZN6KChart23AbstractCoordinatePlane10addDiagramEPNS_15AbstractDiagramE@Base 2.6.0
 _ZN6KChart23AbstractCoordinatePlane10needUpdateEv@Base 2.6.0
 _ZN6KChart23AbstractCoordinatePlane11qt_metacallEN11QMetaObject4CallEiPPv@Base 2.6.0
 _ZN6KChart23AbstractCoordinatePlane11qt_metacastEPKc@Base 2.6.0
 _ZN6KChart23AbstractCoordinatePlane11setGeometryERK5QRect@Base 2.6.0
 _ZN6KChart23AbstractCoordinatePlane11takeDiagramEPNS_15AbstractDiagramE@Base 2.6.0
 _ZN6KChart23AbstractCoordinatePlane12layoutPlanesEv@Base 2.6.0
 _ZN6KChart23AbstractCoordinatePlane12needRelayoutEv@Base 2.6.0
 _ZN6KChart23AbstractCoordinatePlane14mouseMoveEventEP11QMouseEvent@Base 2.6.0
 _ZN6KChart23AbstractCoordinatePlane14replaceDiagramEPNS_15AbstractDiagramES2_@Base 2.6.0
 _ZN6KChart23AbstractCoordinatePlane15geometryChangedE5QRectS1_@Base 2.6.0
 _ZN6KChart23AbstractCoordinatePlane15mousePressEventEP11QMouseEvent@Base 2.6.0
 _ZN6KChart23AbstractCoordinatePlane16needLayoutPlanesEv@Base 2.6.0
 _ZN6KChart23AbstractCoordinatePlane16staticMetaObjectE@Base 2.6.0
 _ZN6KChart23AbstractCoordinatePlane17boundariesChangedEv@Base 2.6.0
 _ZN6KChart23AbstractCoordinatePlane17mouseReleaseEventEP11QMouseEvent@Base 2.6.0
 _ZN6KChart23AbstractCoordinatePlane17propertiesChangedEv@Base 2.6.0
 _ZN6KChart23AbstractCoordinatePlane18gridDimensionsListEv@Base 2.6.0
 _ZN6KChart23AbstractCoordinatePlane21mouseDoubleClickEventEP11QMouseEvent@Base 2.6.0
 _ZN6KChart23AbstractCoordinatePlane21sharedAxisMasterPlaneEP8QPainter@Base 2.6.0
 _ZN6KChart23AbstractCoordinatePlane23setCornerSpacersEnabledEb@Base 2.6.0
 _ZN6KChart23AbstractCoordinatePlane23setGlobalGridAttributesERKNS_14GridAttributesE@Base 2.6.0
 _ZN6KChart23AbstractCoordinatePlane23setGridNeedsRecalculateEv@Base 2.6.0
 _ZN6KChart23AbstractCoordinatePlane24destroyedCoordinatePlaneEPS0_@Base 2.6.0
 _ZN6KChart23AbstractCoordinatePlane24internal_geometryChangedE5QRectS1_@Base 2.6.0
 _ZN6KChart23AbstractCoordinatePlane27setReferenceCoordinatePlaneEPS0_@Base 2.6.0
 _ZN6KChart23AbstractCoordinatePlane27setRubberBandZoomingEnabledEb@Base 2.6.0
 _ZN6KChart23AbstractCoordinatePlane31viewportCoordinateSystemChangedEv@Base 2.6.0
 _ZN6KChart23AbstractCoordinatePlane4initEv@Base 2.6.0
 _ZN6KChart23AbstractCoordinatePlane6parentEv@Base 2.6.0
 _ZN6KChart23AbstractCoordinatePlane6updateEv@Base 2.6.0
 _ZN6KChart23AbstractCoordinatePlane7diagramEv@Base 2.6.0
 _ZN6KChart23AbstractCoordinatePlane8diagramsEv@Base 2.6.0
 _ZN6KChart23AbstractCoordinatePlane8relayoutEv@Base 2.6.0
 _ZN6KChart23AbstractCoordinatePlane9setParentEPNS_5ChartE@Base 2.6.0
 _ZN6KChart23AbstractCoordinatePlaneC1EPNS_5ChartE@Base 2.6.0
 _ZN6KChart23AbstractCoordinatePlaneC2EPNS_5ChartE@Base 2.6.0
 _ZN6KChart23AbstractCoordinatePlaneD0Ev@Base 2.6.0
 _ZN6KChart23AbstractCoordinatePlaneD1Ev@Base 2.6.0
 _ZN6KChart23AbstractCoordinatePlaneD2Ev@Base 2.6.0
 _ZN6KChart24AbstractCartesianDiagram11qt_metacallEN11QMetaObject4CallEiPPv@Base 2.6.0
 _ZN6KChart24AbstractCartesianDiagram11qt_metacastEPKc@Base 2.6.0
 _ZN6KChart24AbstractCartesianDiagram12layoutPlanesEv@Base 2.6.0
 _ZN6KChart24AbstractCartesianDiagram12setRootIndexERK11QModelIndex@Base 2.6.0
 _ZN6KChart24AbstractCartesianDiagram16staticMetaObjectE@Base 2.6.0
 _ZN6KChart24AbstractCartesianDiagram18setAttributesModelEPNS_15AttributesModelE@Base 2.6.0
 _ZN6KChart24AbstractCartesianDiagram18setCoordinatePlaneEPNS_23AbstractCoordinatePlaneE@Base 2.6.0
 _ZN6KChart24AbstractCartesianDiagram19setReferenceDiagramEPS0_RK7QPointF@Base 2.6.0
 _ZN6KChart24AbstractCartesianDiagram22connectAttributesModelEPNS_15AttributesModelE@Base 2.6.0
 _ZN6KChart24AbstractCartesianDiagram4initEv@Base 2.6.0
 _ZN6KChart24AbstractCartesianDiagram7addAxisEPNS_13CartesianAxisE@Base 2.6.0
 _ZN6KChart24AbstractCartesianDiagram8setModelEP18QAbstractItemModel@Base 2.6.0
 _ZN6KChart24AbstractCartesianDiagram8takeAxisEPNS_13CartesianAxisE@Base 2.6.0
 _ZN6KChart24AbstractCartesianDiagramC1EP7QWidgetPNS_24CartesianCoordinatePlaneE@Base 2.6.0
 _ZN6KChart24AbstractCartesianDiagramC2EP7QWidgetPNS_24CartesianCoordinatePlaneE@Base 2.6.0
 _ZN6KChart24AbstractCartesianDiagramD0Ev@Base 2.6.0
 _ZN6KChart24AbstractCartesianDiagramD1Ev@Base 2.6.0
 _ZN6KChart24AbstractCartesianDiagramD2Ev@Base 2.6.0
 _ZN6KChart24AbstractThreeDAttributes10setEnabledEb@Base 2.6.0
 _ZN6KChart24AbstractThreeDAttributes21setThreeDBrushEnabledEb@Base 2.6.0
 _ZN6KChart24AbstractThreeDAttributes4initEv@Base 2.6.0
 _ZN6KChart24AbstractThreeDAttributes8setDepthEd@Base 2.6.0
 _ZN6KChart24AbstractThreeDAttributesC1ERKS0_@Base 2.6.0
 _ZN6KChart24AbstractThreeDAttributesC1Ev@Base 2.6.0
 _ZN6KChart24AbstractThreeDAttributesC2ERKS0_@Base 2.6.0
 _ZN6KChart24AbstractThreeDAttributesC2Ev@Base 2.6.0
 _ZN6KChart24AbstractThreeDAttributesD0Ev@Base 2.6.0
 _ZN6KChart24AbstractThreeDAttributesD1Ev@Base 2.6.0
 _ZN6KChart24AbstractThreeDAttributesD2Ev@Base 2.6.0
 _ZN6KChart24AbstractThreeDAttributesaSERKS0_@Base 2.6.0
 _ZN6KChart24CartesianCoordinatePlane10addDiagramEPNS_15AbstractDiagramE@Base 2.6.0
 _ZN6KChart24CartesianCoordinatePlane11qt_metacallEN11QMetaObject4CallEiPPv@Base 2.6.0
 _ZN6KChart24CartesianCoordinatePlane11qt_metacastEPKc@Base 2.6.0
 _ZN6KChart24CartesianCoordinatePlane11setGeometryERK5QRect@Base 2.6.0
 _ZN6KChart24CartesianCoordinatePlane13setZoomCenterERK7QPointF@Base 2.6.0
 _ZN6KChart24CartesianCoordinatePlane14layoutDiagramsEv@Base 2.6.0
 _ZN6KChart24CartesianCoordinatePlane14setZoomFactorXEd@Base 2.6.0
 _ZN6KChart24CartesianCoordinatePlane14setZoomFactorYEd@Base 2.6.0
 _ZN6KChart24CartesianCoordinatePlane14setZoomFactorsEdd@Base 2.6.0
 _ZN6KChart24CartesianCoordinatePlane16setAxesCalcModeXENS_23AbstractCoordinatePlane12AxesCalcModeE@Base 2.6.0
 _ZN6KChart24CartesianCoordinatePlane16setAxesCalcModeYENS_23AbstractCoordinatePlane12AxesCalcModeE@Base 2.6.0
 _ZN6KChart24CartesianCoordinatePlane16setAxesCalcModesENS_23AbstractCoordinatePlane12AxesCalcModeE@Base 2.6.0
 _ZN6KChart24CartesianCoordinatePlane16setVerticalRangeERK5QPairIddE@Base 2.6.0
 _ZN6KChart24CartesianCoordinatePlane16staticMetaObjectE@Base 2.6.0
 _ZN6KChart24CartesianCoordinatePlane17doneSetZoomCenterERK7QPointF@Base 2.6.0
 _ZN6KChart24CartesianCoordinatePlane17setGridAttributesEN2Qt11OrientationERKNS_14GridAttributesE@Base 2.6.0
 _ZN6KChart24CartesianCoordinatePlane17slotLayoutChangedEPNS_15AbstractDiagramE@Base 2.6.0
 _ZN6KChart24CartesianCoordinatePlane18adjustRangesToDataEv@Base 2.6.0
 _ZN6KChart24CartesianCoordinatePlane18doneSetZoomFactorXEd@Base 2.6.0
 _ZN6KChart24CartesianCoordinatePlane18doneSetZoomFactorYEd@Base 2.6.0
 _ZN6KChart24CartesianCoordinatePlane18setHorizontalRangeERK5QPairIddE@Base 2.6.0
 _ZN6KChart24CartesianCoordinatePlane19resetGridAttributesEN2Qt11OrientationE@Base 2.6.0
 _ZN6KChart24CartesianCoordinatePlane19setIsometricScalingEb@Base 2.6.0
 _ZN6KChart24CartesianCoordinatePlane19setXAxisStartAtZeroEb@Base 2.6.0
 _ZN6KChart24CartesianCoordinatePlane21sharedAxisMasterPlaneEP8QPainter@Base 2.6.0
 _ZN6KChart24CartesianCoordinatePlane23setAutoAdjustGridToZoomEb@Base 2.6.0
 _ZN6KChart24CartesianCoordinatePlane23setHasOwnGridAttributesEN2Qt11OrientationEb@Base 2.6.0
 _ZN6KChart24CartesianCoordinatePlane24setVerticalRangeReversedEb@Base 2.6.0
 _ZN6KChart24CartesianCoordinatePlane25adjustVerticalRangeToDataEv@Base 2.6.0
 _ZN6KChart24CartesianCoordinatePlane26setHorizontalRangeReversedEb@Base 2.6.0
 _ZN6KChart24CartesianCoordinatePlane27adjustHorizontalRangeToDataEv@Base 2.6.0
 _ZN6KChart24CartesianCoordinatePlane32setAutoAdjustVerticalRangeToDataEj@Base 2.6.0
 _ZN6KChart24CartesianCoordinatePlane34setAutoAdjustHorizontalRangeToDataEj@Base 2.6.0
 _ZN6KChart24CartesianCoordinatePlane35setFixedDataCoordinateSpaceRelationEb@Base 2.6.0
 _ZN6KChart24CartesianCoordinatePlane38handleFixedDataCoordinateSpaceRelationERK6QRectF@Base 2.6.0
 _ZN6KChart24CartesianCoordinatePlane4initEv@Base 2.6.0
 _ZN6KChart24CartesianCoordinatePlane5paintEP8QPainter@Base 2.6.0
 _ZN6KChart24CartesianCoordinatePlaneC1EPNS_5ChartE@Base 2.6.0
 _ZN6KChart24CartesianCoordinatePlaneC2EPNS_5ChartE@Base 2.6.0
 _ZN6KChart24CartesianCoordinatePlaneD0Ev@Base 2.6.0
 _ZN6KChart24CartesianCoordinatePlaneD1Ev@Base 2.6.0
 _ZN6KChart24CartesianCoordinatePlaneD2Ev@Base 2.6.0
 _ZN6KChart24HorizontalLineLayoutItem11setGeometryERK5QRect@Base 2.6.0
 _ZN6KChart24HorizontalLineLayoutItem5paintEP8QPainter@Base 2.6.0
 _ZN6KChart24HorizontalLineLayoutItemC1Ev@Base 2.6.0
 _ZN6KChart24HorizontalLineLayoutItemC2Ev@Base 2.6.0
 _ZN6KChart24LineWithMarkerLayoutItem11setGeometryERK5QRect@Base 2.6.0
 _ZN6KChart24LineWithMarkerLayoutItem5paintEP8QPainter@Base 2.6.0
 _ZN6KChart24LineWithMarkerLayoutItemC1EPNS_15AbstractDiagramEiRK4QPeniRKNS_16MarkerAttributesERK6QBrushS5_6QFlagsIN2Qt13AlignmentFlagEE@Base 2.6.0
 _ZN6KChart24LineWithMarkerLayoutItemC2EPNS_15AbstractDiagramEiRK4QPeniRKNS_16MarkerAttributesERK6QBrushS5_6QFlagsIN2Qt13AlignmentFlagEE@Base 2.6.0
 _ZN6KChart27LeveyJenningsGridAttributes10setGridPenENS0_8GridTypeERK4QPen@Base 2.6.0
 _ZN6KChart27LeveyJenningsGridAttributes13setRangeBrushENS0_5RangeERK6QBrush@Base 2.6.0
 _ZN6KChart27LeveyJenningsGridAttributes14setGridVisibleENS0_8GridTypeEb@Base 2.6.0
 _ZN6KChart27LeveyJenningsGridAttributesC1ERKS0_@Base 2.6.0
 _ZN6KChart27LeveyJenningsGridAttributesC1Ev@Base 2.6.0
 _ZN6KChart27LeveyJenningsGridAttributesC2ERKS0_@Base 2.6.0
 _ZN6KChart27LeveyJenningsGridAttributesC2Ev@Base 2.6.0
 _ZN6KChart27LeveyJenningsGridAttributesD1Ev@Base 2.6.0
 _ZN6KChart27LeveyJenningsGridAttributesD2Ev@Base 2.6.0
 _ZN6KChart27LeveyJenningsGridAttributesaSERKS0_@Base 2.6.0
 _ZN6KChart28LeveyJenningsCoordinatePlane10addDiagramEPNS_15AbstractDiagramE@Base 2.6.0
 _ZN6KChart28LeveyJenningsCoordinatePlane11qt_metacallEN11QMetaObject4CallEiPPv@Base 2.6.0
 _ZN6KChart28LeveyJenningsCoordinatePlane11qt_metacastEPKc@Base 2.6.0
 _ZN6KChart28LeveyJenningsCoordinatePlane16staticMetaObjectE@Base 2.6.0
 _ZN6KChart28LeveyJenningsCoordinatePlane17setGridAttributesERKNS_27LeveyJenningsGridAttributesE@Base 2.6.0
 _ZN6KChart28LeveyJenningsCoordinatePlane4initEv@Base 2.6.0
 _ZN6KChart28LeveyJenningsCoordinatePlaneC1EPNS_5ChartE@Base 2.6.0
 _ZN6KChart28LeveyJenningsCoordinatePlaneC2EPNS_5ChartE@Base 2.6.0
 _ZN6KChart28LeveyJenningsCoordinatePlaneD0Ev@Base 2.6.0
 _ZN6KChart28LeveyJenningsCoordinatePlaneD1Ev@Base 2.6.0
 _ZN6KChart28LeveyJenningsCoordinatePlaneD2Ev@Base 2.6.0
 _ZN6KChart30CartesianDiagramDataCompressor10clearCacheEv@Base 2.6.0
 _ZN6KChart30CartesianDiagramDataCompressor10invalidateERKNS0_13CachePositionE@Base 2.6.0
 _ZN6KChart30CartesianDiagramDataCompressor11qt_metacallEN11QMetaObject4CallEiPPv@Base 2.6.0
 _ZN6KChart30CartesianDiagramDataCompressor11qt_metacastEPKc@Base 2.6.0
 _ZN6KChart30CartesianDiagramDataCompressor12rebuildCacheEv@Base 2.6.0
 _ZN6KChart30CartesianDiagramDataCompressor12setRootIndexERK11QModelIndex@Base 2.6.0
 _ZN6KChart30CartesianDiagramDataCompressor13setResolutionEii@Base 2.6.0
 _ZN6KChart30CartesianDiagramDataCompressor15slotRowsRemovedERK11QModelIndexii@Base 2.6.0
 _ZN6KChart30CartesianDiagramDataCompressor16recalcResolutionEv@Base 2.6.0
 _ZN6KChart30CartesianDiagramDataCompressor16slotRowsInsertedERK11QModelIndexii@Base 2.6.0
 _ZN6KChart30CartesianDiagramDataCompressor16staticMetaObjectE@Base 2.6.0
 _ZN6KChart30CartesianDiagramDataCompressor17prepareDataChangeERK11QModelIndexbPiS4_@Base 2.6.0
 _ZN6KChart30CartesianDiagramDataCompressor18slotColumnsRemovedERK11QModelIndexii@Base 2.6.0
 _ZN6KChart30CartesianDiagramDataCompressor19setDatasetDimensionEi@Base 2.6.0
 _ZN6KChart30CartesianDiagramDataCompressor19slotColumnsInsertedERK11QModelIndexii@Base 2.6.0
 _ZN6KChart30CartesianDiagramDataCompressor20slotModelDataChangedERK11QModelIndexS3_@Base 2.6.0
 _ZN6KChart30CartesianDiagramDataCompressor21setResolutionInternalEii@Base 2.6.0
 _ZN6KChart30CartesianDiagramDataCompressor22slotModelLayoutChangedEv@Base 2.6.0
 _ZN6KChart30CartesianDiagramDataCompressor24calculateSampleStepWidthEv@Base 2.6.0
 _ZN6KChart30CartesianDiagramDataCompressor24slotDiagramLayoutChangedEPNS_15AbstractDiagramE@Base 2.6.0
 _ZN6KChart30CartesianDiagramDataCompressor24slotRowsAboutToBeRemovedERK11QModelIndexii@Base 2.6.0
 _ZN6KChart30CartesianDiagramDataCompressor25slotRowsAboutToBeInsertedERK11QModelIndexii@Base 2.6.0
 _ZN6KChart30CartesianDiagramDataCompressor26slotModelHeaderDataChangedEN2Qt11OrientationEii@Base 2.6.0
 _ZN6KChart30CartesianDiagramDataCompressor27slotColumnsAboutToBeRemovedERK11QModelIndexii@Base 2.6.0
 _ZN6KChart30CartesianDiagramDataCompressor28slotColumnsAboutToBeInsertedERK11QModelIndexii@Base 2.6.0
 _ZN6KChart30CartesianDiagramDataCompressor8setModelEP18QAbstractItemModel@Base 2.6.0
 _ZN6KChart30CartesianDiagramDataCompressorC1EP7QObject@Base 2.6.0
 _ZN6KChart30CartesianDiagramDataCompressorC2EP7QObject@Base 2.6.0
 _ZN6KChart5Chart10paintEventEP11QPaintEvent@Base 2.6.0
 _ZN6KChart5Chart10takeLegendEPNS_6LegendE@Base 2.6.0
 _ZN6KChart5Chart11qt_metacallEN11QMetaObject4CallEiPPv@Base 2.6.0
 _ZN6KChart5Chart11qt_metacastEPKc@Base 2.6.0
 _ZN6KChart5Chart11resizeEventEP12QResizeEvent@Base 2.6.0
 _ZN6KChart5Chart12headerFooterEv@Base 2.6.0
 _ZN6KChart5Chart13headerFootersEv@Base 2.6.0
 _ZN6KChart5Chart13replaceLegendEPNS_6LegendES2_@Base 2.6.0
 _ZN6KChart5Chart14mouseMoveEventEP11QMouseEvent@Base 2.6.0
 _ZN6KChart5Chart15addHeaderFooterEPNS_12HeaderFooterE@Base 2.6.0
 _ZN6KChart5Chart15coordinatePlaneEv@Base 2.6.0
 _ZN6KChart5Chart15finishedDrawingEv@Base 2.6.0
 _ZN6KChart5Chart15mousePressEventEP11QMouseEvent@Base 2.6.0
 _ZN6KChart5Chart16coordinatePlanesEv@Base 2.6.0
 _ZN6KChart5Chart16setGlobalLeadingEiiii@Base 2.6.0
 _ZN6KChart5Chart16staticMetaObjectE@Base 2.6.0
 _ZN6KChart5Chart16takeHeaderFooterEPNS_12HeaderFooterE@Base 2.6.0
 _ZN6KChart5Chart17addLegendInternalEPNS_6LegendEb@Base 2.6.0
 _ZN6KChart5Chart17mouseReleaseEventEP11QMouseEvent@Base 2.6.0
 _ZN6KChart5Chart17propertiesChangedEv@Base 2.6.0
 _ZN6KChart5Chart18addCoordinatePlaneEPNS_23AbstractCoordinatePlaneE@Base 2.6.0
 _ZN6KChart5Chart18setFrameAttributesERKNS_15FrameAttributesE@Base 2.6.0
 _ZN6KChart5Chart19replaceHeaderFooterEPNS_12HeaderFooterES2_@Base 2.6.0
 _ZN6KChart5Chart19setGlobalLeadingTopEi@Base 2.6.0
 _ZN6KChart5Chart19takeCoordinatePlaneEPNS_23AbstractCoordinatePlaneE@Base 2.6.0
 _ZN6KChart5Chart20setGlobalLeadingLeftEi@Base 2.6.0
 _ZN6KChart5Chart21coordinatePlaneLayoutEv@Base 2.6.0
 _ZN6KChart5Chart21insertCoordinatePlaneEiPNS_23AbstractCoordinatePlaneE@Base 2.6.0
 _ZN6KChart5Chart21mouseDoubleClickEventEP11QMouseEvent@Base 2.6.0
 _ZN6KChart5Chart21setGlobalLeadingRightEi@Base 2.6.0
 _ZN6KChart5Chart21setUseNewLayoutSystemEb@Base 2.6.0
 _ZN6KChart5Chart22replaceCoordinatePlaneEPNS_23AbstractCoordinatePlaneES2_@Base 2.6.0
 _ZN6KChart5Chart22setGlobalLeadingBottomEi@Base 2.6.0
 _ZN6KChart5Chart23reLayoutFloatingLegendsEv@Base 2.6.0
 _ZN6KChart5Chart23setBackgroundAttributesERKNS_20BackgroundAttributesE@Base 2.6.0
 _ZN6KChart5Chart24setCoordinatePlaneLayoutEP7QLayout@Base 2.6.0
 _ZN6KChart5Chart5eventEP6QEvent@Base 2.6.0
 _ZN6KChart5Chart5paintEP8QPainterRK5QRect@Base 2.6.0
 _ZN6KChart5Chart6legendEv@Base 2.6.0
 _ZN6KChart5Chart7legendsEv@Base 2.6.0
 _ZN6KChart5Chart9addLegendEPNS_6LegendE@Base 2.6.0
 _ZN6KChart5ChartC1EP7QWidget@Base 2.6.0
 _ZN6KChart5ChartC2EP7QWidget@Base 2.6.0
 _ZN6KChart5ChartD0Ev@Base 2.6.0
 _ZN6KChart5ChartD1Ev@Base 2.6.0
 _ZN6KChart5ChartD2Ev@Base 2.6.0
 _ZN6KChart6Legend10addDiagramEPNS_15AbstractDiagramE@Base 2.6.0
 _ZN6KChart6Legend10resetTextsEv@Base 2.6.0
 _ZN6KChart6Legend10setDiagramEPNS_15AbstractDiagramE@Base 2.6.0
 _ZN6KChart6Legend10setSpacingEj@Base 2.6.0
 _ZN6KChart6Legend10setVisibleEb@Base 2.6.0
 _ZN6KChart6Legend11buildLegendEv@Base 2.6.0
 _ZN6KChart6Legend11qt_metacallEN11QMetaObject4CallEiPPv@Base 2.6.0
 _ZN6KChart6Legend11qt_metacastEPKc@Base 2.6.0
 _ZN6KChart6Legend11resizeEventEP12QResizeEvent@Base 2.6.0
 _ZN6KChart6Legend11setPositionENS_8PositionE@Base 2.6.0
 _ZN6KChart6Legend12forceRebuildEv@Base 2.6.0
 _ZN6KChart6Legend12needSizeHintEv@Base 2.6.0
 _ZN6KChart6Legend12resetDiagramEPNS_15AbstractDiagramE@Base 2.6.0
 _ZN6KChart6Legend12resizeLayoutERK5QSize@Base 2.6.0
 _ZN6KChart6Legend12setAlignmentE6QFlagsIN2Qt13AlignmentFlagEE@Base 2.6.0
 _ZN6KChart6Legend12setShowLinesEb@Base 2.6.0
 _ZN6KChart6Legend12setSortOrderEN2Qt9SortOrderE@Base 2.6.0
 _ZN6KChart6Legend12setTitleTextERK7QString@Base 2.6.0
 _ZN6KChart6Legend13dataSetOffsetEPNS_15AbstractDiagramE@Base 2.6.0
 _ZN6KChart6Legend13removeDiagramEPNS_15AbstractDiagramE@Base 2.6.0
 _ZN6KChart6Legend14removeDiagramsEv@Base 2.6.0
 _ZN6KChart6Legend14replaceDiagramEPNS_15AbstractDiagramES2_@Base 2.6.0
 _ZN6KChart6Legend14setLegendStyleENS0_11LegendStyleE@Base 2.6.0
 _ZN6KChart6Legend14setNeedRebuildEv@Base 2.6.0
 _ZN6KChart6Legend14setOrientationEN2Qt11OrientationE@Base 2.6.0
 _ZN6KChart6Legend15destroyedLegendEPS0_@Base 2.6.0
 _ZN6KChart6Legend16setDatasetHiddenEjb@Base 2.6.0
 _ZN6KChart6Legend16setDefaultColorsEv@Base 2.6.0
 _ZN6KChart6Legend16setRainbowColorsEv@Base 2.6.0
 _ZN6KChart6Legend16setReferenceAreaEPK7QWidget@Base 2.6.0
 _ZN6KChart6Legend16setSubduedColorsEb@Base 2.6.0
 _ZN6KChart6Legend16setTextAlignmentE6QFlagsIN2Qt13AlignmentFlagEE@Base 2.6.0
 _ZN6KChart6Legend16staticMetaObjectE@Base 2.6.0
 _ZN6KChart6Legend17activateTheLayoutEv@Base 2.6.0
 _ZN6KChart6Legend17propertiesChangedEv@Base 2.6.0
 _ZN6KChart6Legend17setHiddenDatasetsE5QListIjE@Base 2.6.0
 _ZN6KChart6Legend17setTextAttributesERKNS_14TextAttributesE@Base 2.6.0
 _ZN6KChart6Legend19emitPositionChangedEv@Base 2.6.0
 _ZN6KChart6Legend19setFloatingPositionERKNS_16RelativePositionE@Base 2.6.0
 _ZN6KChart6Legend19setMarkerAttributesEjRKNS_16MarkerAttributesE@Base 2.6.0
 _ZN6KChart6Legend21setBrushesFromDiagramEPNS_15AbstractDiagramE@Base 2.6.0
 _ZN6KChart6Legend22setTitleTextAttributesERKNS_14TextAttributesE@Base 2.6.0
 _ZN6KChart6Legend24setLegendSymbolAlignmentE6QFlagsIN2Qt13AlignmentFlagEE@Base 2.6.0
 _ZN6KChart6Legend25setUseAutomaticMarkerSizeEb@Base 2.6.0
 _ZN6KChart6Legend4initEv@Base 2.6.0
 _ZN6KChart6Legend5paintEP8QPainter@Base 2.6.0
 _ZN6KChart6Legend5paintEP8QPainterRK5QRect@Base 2.7.0
 _ZN6KChart6Legend6setPenEjRK4QPen@Base 2.6.0
 _ZN6KChart6Legend7setTextEjRK7QString@Base 2.6.0
 _ZN6KChart6Legend8setBrushEjRK6QBrush@Base 2.6.0
 _ZN6KChart6Legend8setColorEjRK6QColor@Base 2.6.0
 _ZN6KChart6LegendC1EP7QWidget@Base 2.6.0
 _ZN6KChart6LegendC1EPNS_15AbstractDiagramEP7QWidget@Base 2.6.0
 _ZN6KChart6LegendC2EP7QWidget@Base 2.6.0
 _ZN6KChart6LegendC2EPNS_15AbstractDiagramEP7QWidget@Base 2.6.0
 _ZN6KChart6LegendD0Ev@Base 2.6.0
 _ZN6KChart6LegendD1Ev@Base 2.6.0
 _ZN6KChart6LegendD2Ev@Base 2.6.0
 _ZN6KChart6Widget10allLegendsEv@Base 2.6.0
 _ZN6KChart6Widget10barDiagramEv@Base 2.6.0
 _ZN6KChart6Widget10pieDiagramEv@Base 2.6.0
 _ZN6KChart6Widget10setDatasetEiRK7QVectorI5QPairIddEERK7QString@Base 2.6.0
 _ZN6KChart6Widget10setDatasetEiRK7QVectorIdERK7QString@Base 2.6.0
 _ZN6KChart6Widget10setSubTypeENS0_7SubTypeE@Base 2.6.0
 _ZN6KChart6Widget10takeLegendEPNS_6LegendE@Base 2.6.0
 _ZN6KChart6Widget11lineDiagramEv@Base 2.6.0
 _ZN6KChart6Widget11qt_metacallEN11QMetaObject4CallEiPPv@Base 2.6.0
 _ZN6KChart6Widget11qt_metacastEPKc@Base 2.6.0
 _ZN6KChart6Widget11ringDiagramEv@Base 2.6.0
 _ZN6KChart6Widget11setDataCellEii5QPairIddE@Base 2.6.0
 _ZN6KChart6Widget11setDataCellEiid@Base 2.6.0
 _ZN6KChart6Widget12polarDiagramEv@Base 2.6.0
 _ZN6KChart6Widget13replaceLegendEPNS_6LegendES2_@Base 2.6.0
 _ZN6KChart6Widget15addHeaderFooterEPNS_12HeaderFooterE@Base 2.6.0
 _ZN6KChart6Widget15addHeaderFooterERK7QStringNS_12HeaderFooter16HeaderFooterTypeENS_8PositionE@Base 2.6.0
 _ZN6KChart6Widget15coordinatePlaneEv@Base 2.6.0
 _ZN6KChart6Widget16justifyModelSizeEii@Base 2.6.0
 _ZN6KChart6Widget16setGlobalLeadingEiiii@Base 2.6.0
 _ZN6KChart6Widget16staticMetaObjectE@Base 2.6.0
 _ZN6KChart6Widget16takeHeaderFooterEPNS_12HeaderFooterE@Base 2.6.0
 _ZN6KChart6Widget17allHeadersFootersEv@Base 2.6.0
 _ZN6KChart6Widget17checkDatasetWidthEi@Base 2.6.0
 _ZN6KChart6Widget17firstHeaderFooterEv@Base 2.6.0
 _ZN6KChart6Widget19replaceHeaderFooterEPNS_12HeaderFooterES2_@Base 2.6.0
 _ZN6KChart6Widget19setGlobalLeadingTopEi@Base 2.6.0
 _ZN6KChart6Widget20setGlobalLeadingLeftEi@Base 2.6.0
 _ZN6KChart6Widget21setGlobalLeadingRightEi@Base 2.6.0
 _ZN6KChart6Widget22setGlobalLeadingBottomEi@Base 2.6.0
 _ZN6KChart6Widget4initEv@Base 2.6.0
 _ZN6KChart6Widget6legendEv@Base 2.6.0
 _ZN6KChart6Widget7diagramEv@Base 2.6.0
 _ZN6KChart6Widget7plotterEv@Base 2.6.0
 _ZN6KChart6Widget7setTypeENS0_9ChartTypeENS0_7SubTypeE@Base 2.6.0
 _ZN6KChart6Widget9addLegendENS_8PositionE@Base 2.6.0
 _ZN6KChart6Widget9addLegendEPNS_6LegendE@Base 2.6.0
 _ZN6KChart6Widget9resetDataEv@Base 2.6.0
 _ZN6KChart6WidgetC1EP7QWidget@Base 2.6.0
 _ZN6KChart6WidgetC2EP7QWidget@Base 2.6.0
 _ZN6KChart6WidgetD0Ev@Base 2.6.0
 _ZN6KChart6WidgetD1Ev@Base 2.6.0
 _ZN6KChart6WidgetD2Ev@Base 2.6.0
 _ZN6KChart7MeasureC1ERKS0_@Base 2.6.0
 _ZN6KChart7MeasureC1EdN11KChartEnums22MeasureCalculationModeENS1_18MeasureOrientationE@Base 2.6.0
 _ZN6KChart7MeasureC1Ev@Base 2.6.0
 _ZN6KChart7MeasureC2ERKS0_@Base 2.6.0
 _ZN6KChart7MeasureC2EdN11KChartEnums22MeasureCalculationModeENS1_18MeasureOrientationE@Base 2.6.0
 _ZN6KChart7MeasureC2Ev@Base 2.6.0
 _ZN6KChart7MeasureaSERKS0_@Base 2.6.0
 _ZN6KChart7Palette11qt_metacallEN11QMetaObject4CallEiPPv@Base 2.6.0
 _ZN6KChart7Palette11qt_metacastEPKc@Base 2.6.0
 _ZN6KChart7Palette11removeBrushEi@Base 2.6.0
 _ZN6KChart7Palette14defaultPaletteEv@Base 2.6.0
 _ZN6KChart7Palette14rainbowPaletteEv@Base 2.6.0
 _ZN6KChart7Palette14subduedPaletteEv@Base 2.6.0
 _ZN6KChart7Palette16staticMetaObjectE@Base 2.6.0
 _ZN6KChart7Palette7changedEv@Base 2.6.0
 _ZN6KChart7Palette8addBrushERK6QBrushi@Base 2.6.0
 _ZN6KChart7PaletteC1EP7QObject@Base 2.6.0
 _ZN6KChart7PaletteC1ERKS0_@Base 2.6.0
 _ZN6KChart7PaletteC2EP7QObject@Base 2.6.0
 _ZN6KChart7PaletteC2ERKS0_@Base 2.6.0
 _ZN6KChart7PaletteD0Ev@Base 2.6.0
 _ZN6KChart7PaletteD1Ev@Base 2.6.0
 _ZN6KChart7PaletteD2Ev@Base 2.6.0
 _ZN6KChart7PaletteaSERKS0_@Base 2.6.0
 _ZN6KChart7Plotter10paintEventEP11QPaintEvent@Base 2.6.0
 _ZN6KChart7Plotter11PlotterType13reverseMapperEv@Base 2.6.0
 _ZN6KChart7Plotter11PlotterType17setUseCompressionENS0_15CompressionModeE@Base 2.6.0
 _ZN6KChart7Plotter11qt_metacallEN11QMetaObject4CallEiPPv@Base 2.6.0
 _ZN6KChart7Plotter11qt_metacastEPKc@Base 2.6.0
 _ZN6KChart7Plotter11resizeEventEP12QResizeEvent@Base 2.6.0
 _ZN6KChart7Plotter15calcMergeRadiusEv@Base 2.6.0
 _ZN6KChart7Plotter16staticMetaObjectE@Base 2.6.0
 _ZN6KChart7Plotter17setLineAttributesERK11QModelIndexRKNS_14LineAttributesE@Base 2.6.0
 _ZN6KChart7Plotter17setLineAttributesERKNS_14LineAttributesE@Base 2.6.0
 _ZN6KChart7Plotter17setLineAttributesEiRKNS_14LineAttributesE@Base 2.6.0
 _ZN6KChart7Plotter17setMaxSlopeChangeEd@Base 2.6.0
 _ZN6KChart7Plotter19resetLineAttributesERK11QModelIndex@Base 2.6.0
 _ZN6KChart7Plotter19resetLineAttributesEi@Base 2.6.0
 _ZN6KChart7Plotter21setUseDataCompressionENS0_15CompressionModeE@Base 2.6.0
 _ZN6KChart7Plotter22connectAttributesModelEPNS_15AttributesModelE@Base 2.6.0
 _ZN6KChart7Plotter22setDataBoundariesDirtyEv@Base 2.6.0
 _ZN6KChart7Plotter23setThreeDLineAttributesERK11QModelIndexRKNS_20ThreeDLineAttributesE@Base 2.6.0
 _ZN6KChart7Plotter23setThreeDLineAttributesERKNS_20ThreeDLineAttributesE@Base 2.6.0
 _ZN6KChart7Plotter23setThreeDLineAttributesEiRKNS_20ThreeDLineAttributesE@Base 2.6.0
 _ZN6KChart7Plotter24setMergeRadiusPercentageEd@Base 2.6.0
 _ZN6KChart7Plotter25setValueTrackerAttributesERK11QModelIndexRKNS_22ValueTrackerAttributesE@Base 2.6.0
 _ZN6KChart7Plotter4initEv@Base 2.6.0
 _ZN6KChart7Plotter5paintEPNS_12PaintContextE@Base 2.6.0
 _ZN6KChart7Plotter6resizeERK6QSizeF@Base 2.6.0
 _ZN6KChart7Plotter7setTypeENS0_8PlotTypeE@Base 2.6.0
 _ZN6KChart7PlotterC1EP7QWidgetPNS_24CartesianCoordinatePlaneE@Base 2.6.0
 _ZN6KChart7PlotterC2EP7QWidgetPNS_24CartesianCoordinatePlaneE@Base 2.6.0
 _ZN6KChart7PlotterD0Ev@Base 2.6.0
 _ZN6KChart7PlotterD1Ev@Base 2.6.0
 _ZN6KChart7PlotterD2Ev@Base 2.6.0
 _ZN6KChart8Position14printableNamesE6QFlagsINS0_6OptionEE@Base 2.6.0
 _ZN6KChart8Position4EastE@Base 2.6.0
 _ZN6KChart8Position4WestE@Base 2.6.0
 _ZN6KChart8Position5NorthE@Base 2.6.0
 _ZN6KChart8Position5SouthE@Base 2.6.0
 _ZN6KChart8Position5namesE6QFlagsINS0_6OptionEE@Base 2.6.0
 _ZN6KChart8Position6CenterE@Base 2.6.0
 _ZN6KChart8Position7UnknownE@Base 2.6.0
 _ZN6KChart8Position8FloatingE@Base 2.6.0
 _ZN6KChart8Position8fromNameEPKc@Base 2.6.0
 _ZN6KChart8Position8fromNameERK10QByteArray@Base 2.6.0
 _ZN6KChart8Position9NorthEastE@Base 2.6.0
 _ZN6KChart8Position9NorthWestE@Base 2.6.0
 _ZN6KChart8Position9SouthEastE@Base 2.6.0
 _ZN6KChart8Position9SouthWestE@Base 2.6.0
 _ZN6KChart8PositionC1EN11KChartEnums13PositionValueE@Base 2.6.0
 _ZN6KChart8PositionC1Ei@Base 2.6.0
 _ZN6KChart8PositionC1Ev@Base 2.6.0
 _ZN6KChart8PositionC2EN11KChartEnums13PositionValueE@Base 2.6.0
 _ZN6KChart8PositionC2Ei@Base 2.6.0
 _ZN6KChart8PositionC2Ev@Base 2.6.0
 _ZN6KChart8TextArea11qt_metacallEN11QMetaObject4CallEiPPv@Base 2.6.0
 _ZN6KChart8TextArea11qt_metacastEPKc@Base 2.6.0
 _ZN6KChart8TextArea13paintIntoRectER8QPainterRK5QRect@Base 2.6.0
 _ZN6KChart8TextArea15positionChangedEPS0_@Base 2.6.0
 _ZN6KChart8TextArea16staticMetaObjectE@Base 2.6.0
 _ZN6KChart8TextArea18positionHasChangedEv@Base 2.6.0
 _ZN6KChart8TextArea4initEv@Base 2.6.0
 _ZN6KChart8TextArea8paintAllER8QPainter@Base 2.6.0
 _ZN6KChart8TextAreaC1Ev@Base 2.6.0
 _ZN6KChart8TextAreaC2Ev@Base 2.6.0
 _ZN6KChart8TextAreaD0Ev@Base 2.6.0
 _ZN6KChart8TextAreaD1Ev@Base 2.6.0
 _ZN6KChart8TextAreaD2Ev@Base 2.6.0
 _ZNK11KChartEnums10metaObjectEv@Base 2.8.0
 _ZNK6KChart10BarDiagram10metaObjectEv@Base 2.6.0
 _ZNK6KChart10BarDiagram11orientationEv@Base 2.6.0
 _ZNK6KChart10BarDiagram13barAttributesERK11QModelIndex@Base 2.6.0
 _ZNK6KChart10BarDiagram13barAttributesEi@Base 2.6.0
 _ZNK6KChart10BarDiagram13barAttributesEv@Base 2.6.0
 _ZNK6KChart10BarDiagram14BarDiagramType10compressorEv@Base 2.6.0
 _ZNK6KChart10BarDiagram14BarDiagramType15attributesModelEv@Base 2.6.0
 _ZNK6KChart10BarDiagram14BarDiagramType24attributesModelRootIndexEv@Base 2.6.0
 _ZNK6KChart10BarDiagram14BarDiagramType7diagramEv@Base 2.6.0
 _ZNK6KChart10BarDiagram15threeDItemDepthERK11QModelIndex@Base 2.6.0
 _ZNK6KChart10BarDiagram15threeDItemDepthEi@Base 2.6.0
 _ZNK6KChart10BarDiagram19threeDBarAttributesERK11QModelIndex@Base 2.6.0
 _ZNK6KChart10BarDiagram19threeDBarAttributesEi@Base 2.6.0
 _ZNK6KChart10BarDiagram19threeDBarAttributesEv@Base 2.6.0
 _ZNK6KChart10BarDiagram23calculateDataBoundariesEv@Base 2.6.0
 _ZNK6KChart10BarDiagram24numberOfAbscissaSegmentsEv@Base 2.6.0
 _ZNK6KChart10BarDiagram24numberOfOrdinateSegmentsEv@Base 2.6.0
 _ZNK6KChart10BarDiagram4typeEv@Base 2.6.0
 _ZNK6KChart10BarDiagram5cloneEv@Base 2.6.0
 _ZNK6KChart10BarDiagram7compareEPKS0_@Base 2.6.0
 _ZNK6KChart10PieDiagram10metaObjectEv@Base 2.6.0
 _ZNK6KChart10PieDiagram11twoDPieRectERK6QRectFRKNS_19ThreeDPieAttributesE@Base 2.6.0
 _ZNK6KChart10PieDiagram11valueTotalsEv@Base 2.6.0
 _ZNK6KChart10PieDiagram16labelDecorationsEv@Base 2.6.0
 _ZNK6KChart10PieDiagram17numberOfGridRingsEv@Base 2.6.0
 _ZNK6KChart10PieDiagram20explodedDrawPositionERK6QRectFj@Base 2.6.0
 _ZNK6KChart10PieDiagram23calculateDataBoundariesEv@Base 2.6.0
 _ZNK6KChart10PieDiagram24numberOfValuesPerDatasetEv@Base 2.6.0
 _ZNK6KChart10PieDiagram32isLabelCollisionAvoidanceEnabledEv@Base 2.6.0
 _ZNK6KChart10PieDiagram5cloneEv@Base 2.6.0
 _ZNK6KChart11LineDiagram10metaObjectEv@Base 2.6.0
 _ZNK6KChart11LineDiagram14lineAttributesERK11QModelIndex@Base 2.6.0
 _ZNK6KChart11LineDiagram14lineAttributesEi@Base 2.6.0
 _ZNK6KChart11LineDiagram14lineAttributesEv@Base 2.6.0
 _ZNK6KChart11LineDiagram15LineDiagramType10compressorEv@Base 2.6.0
 _ZNK6KChart11LineDiagram15LineDiagramType12valueForCellEii@Base 2.6.0
 _ZNK6KChart11LineDiagram15LineDiagramType15attributesModelEv@Base 2.6.0
 _ZNK6KChart11LineDiagram15LineDiagramType16datasetDimensionEv@Base 2.6.0
 _ZNK6KChart11LineDiagram15LineDiagramType23interpolateMissingValueERKNS_30CartesianDiagramDataCompressor13CachePositionE@Base 2.6.0
 _ZNK6KChart11LineDiagram15LineDiagramType24attributesModelRootIndexEv@Base 2.6.0
 _ZNK6KChart11LineDiagram15LineDiagramType7diagramEv@Base 2.6.0
 _ZNK6KChart11LineDiagram15threeDItemDepthERK11QModelIndex@Base 2.6.0
 _ZNK6KChart11LineDiagram15threeDItemDepthEi@Base 2.6.0
 _ZNK6KChart11LineDiagram16centerDataPointsEv@Base 2.6.0
 _ZNK6KChart11LineDiagram19reverseDatasetOrderEv@Base 2.6.0
 _ZNK6KChart11LineDiagram20threeDLineAttributesERK11QModelIndex@Base 2.6.0
 _ZNK6KChart11LineDiagram20threeDLineAttributesEi@Base 2.6.0
 _ZNK6KChart11LineDiagram20threeDLineAttributesEv@Base 2.6.0
 _ZNK6KChart11LineDiagram22valueTrackerAttributesERK11QModelIndex@Base 2.6.0
 _ZNK6KChart11LineDiagram23calculateDataBoundariesEv@Base 2.6.0
 _ZNK6KChart11LineDiagram24numberOfAbscissaSegmentsEv@Base 2.6.0
 _ZNK6KChart11LineDiagram24numberOfOrdinateSegmentsEv@Base 2.6.0
 _ZNK6KChart11LineDiagram4typeEv@Base 2.6.0
 _ZNK6KChart11LineDiagram5cloneEv@Base 2.6.0
 _ZNK6KChart11LineDiagram7compareEPKS0_@Base 2.6.0
 _ZNK6KChart11RingDiagram10metaObjectEv@Base 2.6.0
 _ZNK6KChart11RingDiagram11valueTotalsEi@Base 2.6.0
 _ZNK6KChart11RingDiagram11valueTotalsEv@Base 2.6.0
 _ZNK6KChart11RingDiagram16numberOfDatasetsEv@Base 2.6.0
 _ZNK6KChart11RingDiagram17numberOfGridRingsEv@Base 2.6.0
 _ZNK6KChart11RingDiagram17relativeThicknessEv@Base 2.6.0
 _ZNK6KChart11RingDiagram18expandWhenExplodedEv@Base 2.6.0
 _ZNK6KChart11RingDiagram23calculateDataBoundariesEv@Base 2.6.0
 _ZNK6KChart11RingDiagram24numberOfValuesPerDatasetEv@Base 2.6.0
 _ZNK6KChart11RingDiagram5cloneEv@Base 2.6.0
 _ZNK6KChart11RingDiagram7compareEPKS0_@Base 2.6.0
 _ZNK6KChart11TernaryAxis10metaObjectEv@Base 2.6.0
 _ZNK6KChart11TernaryAxis11maximumSizeEv@Base 2.6.0
 _ZNK6KChart11TernaryAxis11minimumSizeEv@Base 2.6.0
 _ZNK6KChart11TernaryAxis15requiredMarginsEv@Base 2.6.0
 _ZNK6KChart11TernaryAxis19expandingDirectionsEv@Base 2.6.0
 _ZNK6KChart11TernaryAxis19titleTextAttributesEv@Base 2.6.0
 _ZNK6KChart11TernaryAxis29hasDefaultTitleTextAttributesEv@Base 2.6.0
 _ZNK6KChart11TernaryAxis7isEmptyEv@Base 2.6.0
 _ZNK6KChart11TernaryAxis8geometryEv@Base 2.6.0
 _ZNK6KChart11TernaryAxis8positionEv@Base 2.6.0
 _ZNK6KChart11TernaryAxis8sizeHintEv@Base 2.6.0
 _ZNK6KChart11TernaryAxis9titleTextEv@Base 2.6.0
 _ZNK6KChart12AbstractArea10metaObjectEv@Base 2.6.0
 _ZNK6KChart12AbstractArea10topOverlapEb@Base 2.6.0
 _ZNK6KChart12AbstractArea11leftOverlapEb@Base 2.6.0
 _ZNK6KChart12AbstractArea12areaGeometryEv@Base 2.6.0
 _ZNK6KChart12AbstractArea12rightOverlapEb@Base 2.6.0
 _ZNK6KChart12AbstractArea13bottomOverlapEb@Base 2.6.0
 _ZNK6KChart12AbstractAxis10metaObjectEv@Base 2.6.0
 _ZNK6KChart12AbstractAxis10observedByEPNS_15AbstractDiagramE@Base 2.6.0
 _ZNK6KChart12AbstractAxis11shortLabelsEv@Base 2.6.0
 _ZNK6KChart12AbstractAxis14textAttributesEv@Base 2.6.0
 _ZNK6KChart12AbstractAxis15coordinatePlaneEv@Base 2.6.0
 _ZNK6KChart12AbstractAxis15customizedLabelERK7QString@Base 2.6.0
 _ZNK6KChart12AbstractAxis15rulerAttributesEv@Base 2.6.0
 _ZNK6KChart12AbstractAxis6labelsEv@Base 2.6.0
 _ZNK6KChart12AbstractAxis7compareEPKS0_@Base 2.6.0
 _ZNK6KChart12AbstractAxis7diagramEv@Base 2.6.0
 _ZNK6KChart12HeaderFooter10metaObjectEv@Base 2.6.0
 _ZNK6KChart12HeaderFooter4typeEv@Base 2.6.0
 _ZNK6KChart12HeaderFooter5cloneEv@Base 2.6.0
 _ZNK6KChart12HeaderFooter7compareERKS0_@Base 2.6.0
 _ZNK6KChart12HeaderFooter8positionEv@Base 2.6.0
 _ZNK6KChart12PaintContext15coordinatePlaneEv@Base 2.6.0
 _ZNK6KChart12PaintContext7painterEv@Base 2.6.0
 _ZNK6KChart12PaintContext9rectangleEv@Base 2.6.0
 _ZNK6KChart12PolarDiagram10metaObjectEv@Base 2.6.0
 _ZNK6KChart12PolarDiagram11valueTotalsEv@Base 2.6.0
 _ZNK6KChart12PolarDiagram13closeDatasetsEv@Base 2.6.0
 _ZNK6KChart12PolarDiagram17numberOfGridRingsEv@Base 2.6.0
 _ZNK6KChart12PolarDiagram18zeroDegreePositionEv@Base 2.6.0
 _ZNK6KChart12PolarDiagram20rotateCircularLabelsEv@Base 2.6.0
 _ZNK6KChart12PolarDiagram20showLabelsAtPositionENS_8PositionE@Base 2.6.0
 _ZNK6KChart12PolarDiagram23calculateDataBoundariesEv@Base 2.6.0
 _ZNK6KChart12PolarDiagram24numberOfValuesPerDatasetEv@Base 2.6.0
 _ZNK6KChart12PolarDiagram24showDelimitersAtPositionENS_8PositionE@Base 2.6.0
 _ZNK6KChart12PolarDiagram5cloneEv@Base 2.6.0
 _ZNK6KChart12RadarDiagram10metaObjectEv@Base 2.6.0
 _ZNK6KChart12RadarDiagram11valueTotalsEv@Base 2.6.0
 _ZNK6KChart12RadarDiagram13closeDatasetsEv@Base 2.6.0
 _ZNK6KChart12RadarDiagram17numberOfGridRingsEv@Base 2.6.0
 _ZNK6KChart12RadarDiagram23calculateDataBoundariesEv@Base 2.6.0
 _ZNK6KChart12RadarDiagram24numberOfValuesPerDatasetEv@Base 2.6.0
 _ZNK6KChart12RadarDiagram5cloneEv@Base 2.6.0
 _ZNK6KChart12RadarDiagram9fillAlphaEv@Base 2.6.0
 _ZNK6KChart12StockDiagram10metaObjectEv@Base 2.6.0
 _ZNK6KChart12StockDiagram14lowHighLinePenEi@Base 2.6.0
 _ZNK6KChart12StockDiagram14lowHighLinePenEv@Base 2.6.0
 _ZNK6KChart12StockDiagram15threeDItemDepthERK11QModelIndex@Base 2.6.0
 _ZNK6KChart12StockDiagram15threeDItemDepthEi@Base 2.6.0
 _ZNK6KChart12StockDiagram18stockBarAttributesEi@Base 2.6.0
 _ZNK6KChart12StockDiagram18stockBarAttributesEv@Base 2.6.0
 _ZNK6KChart12StockDiagram19threeDBarAttributesEi@Base 2.6.0
 _ZNK6KChart12StockDiagram19threeDBarAttributesEv@Base 2.6.0
 _ZNK6KChart12StockDiagram21upTrendCandlestickPenEi@Base 2.6.0
 _ZNK6KChart12StockDiagram21upTrendCandlestickPenEv@Base 2.6.0
 _ZNK6KChart12StockDiagram23calculateDataBoundariesEv@Base 2.6.0
 _ZNK6KChart12StockDiagram23downTrendCandlestickPenEi@Base 2.6.0
 _ZNK6KChart12StockDiagram23downTrendCandlestickPenEv@Base 2.6.0
 _ZNK6KChart12StockDiagram23upTrendCandlestickBrushEi@Base 2.6.0
 _ZNK6KChart12StockDiagram23upTrendCandlestickBrushEv@Base 2.6.0
 _ZNK6KChart12StockDiagram24numberOfAbscissaSegmentsEv@Base 2.6.0
 _ZNK6KChart12StockDiagram24numberOfOrdinateSegmentsEv@Base 2.6.0
 _ZNK6KChart12StockDiagram25downTrendCandlestickBrushEi@Base 2.6.0
 _ZNK6KChart12StockDiagram25downTrendCandlestickBrushEv@Base 2.6.0
 _ZNK6KChart12StockDiagram4typeEv@Base 2.6.0
 _ZNK6KChart13BarAttributes12barGapFactorEv@Base 2.6.0
 _ZNK6KChart13BarAttributes13fixedBarWidthEv@Base 2.6.0
 _ZNK6KChart13BarAttributes14groupGapFactorEv@Base 2.6.0
 _ZNK6KChart13BarAttributes16useFixedBarWidthEv@Base 2.6.0
 _ZNK6KChart13BarAttributes17fixedDataValueGapEv@Base 2.6.0
 _ZNK6KChart13BarAttributes18fixedValueBlockGapEv@Base 2.6.0
 _ZNK6KChart13BarAttributes20useFixedDataValueGapEv@Base 2.6.0
 _ZNK6KChart13BarAttributes21drawSolidExcessArrowsEv@Base 2.6.0
 _ZNK6KChart13BarAttributes21useFixedValueBlockGapEv@Base 2.6.0
 _ZNK6KChart13BarAttributeseqERKS0_@Base 2.6.0
 _ZNK6KChart13CartesianAxis10isAbscissaEv@Base 2.6.0
 _ZNK6KChart13CartesianAxis10isOrdinateEv@Base 2.6.0
 _ZNK6KChart13CartesianAxis10metaObjectEv@Base 2.6.0
 _ZNK6KChart13CartesianAxis10tickLengthEb@Base 2.6.0
 _ZNK6KChart13CartesianAxis10titleSpaceEv@Base 2.6.0
 _ZNK6KChart13CartesianAxis11annotationsEv@Base 2.6.0
 _ZNK6KChart13CartesianAxis11customTicksEv@Base 2.6.0
 _ZNK6KChart13CartesianAxis11maximumSizeEv@Base 2.6.0
 _ZNK6KChart13CartesianAxis11minimumSizeEv@Base 2.6.0
 _ZNK6KChart13CartesianAxis16customTickLengthEv@Base 2.6.0
 _ZNK6KChart13CartesianAxis18setCachedSizeDirtyEv@Base 2.6.0
 _ZNK6KChart13CartesianAxis19expandingDirectionsEv@Base 2.6.0
 _ZNK6KChart13CartesianAxis19titleTextAttributesEv@Base 2.6.0
 _ZNK6KChart13CartesianAxis29hasDefaultTitleTextAttributesEv@Base 2.6.0
 _ZNK6KChart13CartesianAxis7compareEPKS0_@Base 2.6.0
 _ZNK6KChart13CartesianAxis7isEmptyEv@Base 2.6.0
 _ZNK6KChart13CartesianAxis8geometryEv@Base 2.6.0
 _ZNK6KChart13CartesianAxis8positionEv@Base 2.6.0
 _ZNK6KChart13CartesianAxis8sizeHintEv@Base 2.6.0
 _ZNK6KChart13CartesianAxis9titleSizeEv@Base 2.6.0
 _ZNK6KChart13CartesianAxis9titleTextEv@Base 2.6.0
 _ZNK6KChart13PieAttributes13explodeFactorEv@Base 2.6.0
 _ZNK6KChart13PieAttributes7explodeEv@Base 2.6.0
 _ZNK6KChart13PieAttributes9gapFactorEb@Base 2.6.0
 _ZNK6KChart13PieAttributeseqERKS0_@Base 2.6.0
 _ZNK6KChart14GridAttributes10subGridPenEv@Base 2.6.0
 _ZNK6KChart14GridAttributes11zeroLinePenEv@Base 2.6.0
 _ZNK6KChart14GridAttributes13gridStepWidthEv@Base 2.6.0
 _ZNK6KChart14GridAttributes13isGridVisibleEv@Base 2.6.0
 _ZNK6KChart14GridAttributes16gridSubStepWidthEv@Base 2.6.0
 _ZNK6KChart14GridAttributes16isSubGridVisibleEv@Base 2.6.0
 _ZNK6KChart14GridAttributes18linesOnAnnotationsEv@Base 2.6.0
 _ZNK6KChart14GridAttributes19isOuterLinesVisibleEv@Base 2.6.0
 _ZNK6KChart14GridAttributes22adjustLowerBoundToGridEv@Base 2.6.0
 _ZNK6KChart14GridAttributes22adjustUpperBoundToGridEv@Base 2.6.0
 _ZNK6KChart14GridAttributes23gridGranularitySequenceEv@Base 2.6.0
 _ZNK6KChart14GridAttributes7gridPenEv@Base 2.6.0
 _ZNK6KChart14GridAttributeseqERKS0_@Base 2.6.0
 _ZNK6KChart14LineAttributes11displayAreaEv@Base 2.6.0
 _ZNK6KChart14LineAttributes12transparencyEv@Base 2.6.0
 _ZNK6KChart14LineAttributes19areaBoundingDatasetEv@Base 2.6.0
 _ZNK6KChart14LineAttributes19missingValuesPolicyEv@Base 2.6.0
 _ZNK6KChart14LineAttributes9isVisibleEv@Base 2.6.0
 _ZNK6KChart14LineAttributeseqERKS0_@Base 2.6.0
 _ZNK6KChart14LineLayoutItem11maximumSizeEv@Base 2.6.0
 _ZNK6KChart14LineLayoutItem11minimumSizeEv@Base 2.6.0
 _ZNK6KChart14LineLayoutItem19expandingDirectionsEv@Base 2.6.0
 _ZNK6KChart14LineLayoutItem25legendLineSymbolAlignmentEv@Base 2.6.0
 _ZNK6KChart14LineLayoutItem7isEmptyEv@Base 2.6.0
 _ZNK6KChart14LineLayoutItem8geometryEv@Base 2.6.0
 _ZNK6KChart14LineLayoutItem8sizeHintEv@Base 2.6.0
 _ZNK6KChart14TextAttributes10autoRotateEv@Base 2.6.0
 _ZNK6KChart14TextAttributes10autoShrinkEv@Base 2.6.0
 _ZNK6KChart14TextAttributes11hasRotationEv@Base 2.6.0
 _ZNK6KChart14TextAttributes12textDocumentEv@Base 2.6.0
 _ZNK6KChart14TextAttributes14calculatedFontEPK7QObjectN11KChartEnums18MeasureOrientationE@Base 2.6.0
 _ZNK6KChart14TextAttributes15minimalFontSizeEv@Base 2.6.0
 _ZNK6KChart14TextAttributes18calculatedFontSizeEPK7QObjectN11KChartEnums18MeasureOrientationE@Base 2.6.0
 _ZNK6KChart14TextAttributes18calculatedFontSizeERK6QSizeFN11KChartEnums18MeasureOrientationE@Base 2.6.0
 _ZNK6KChart14TextAttributes19hasAbsoluteFontSizeEv@Base 2.6.0
 _ZNK6KChart14TextAttributes3penEv@Base 2.6.0
 _ZNK6KChart14TextAttributes4fontEv@Base 2.6.0
 _ZNK6KChart14TextAttributes8fontSizeEv@Base 2.6.0
 _ZNK6KChart14TextAttributes8rotationEv@Base 2.6.0
 _ZNK6KChart14TextAttributes9isVisibleEv@Base 2.6.0
 _ZNK6KChart14TextAttributeseqERKS0_@Base 2.6.0
 _ZNK6KChart14TextLayoutItem10intersectsERKS0_RK6QPointS5_@Base 2.6.0
 _ZNK6KChart14TextLayoutItem10intersectsERKS0_RK7QPointFS5_@Base 2.6.0
 _ZNK6KChart14TextLayoutItem11marginWidthERK5QSize@Base 2.6.0
 _ZNK6KChart14TextLayoutItem11marginWidthEv@Base 2.6.0
 _ZNK6KChart14TextLayoutItem11maximumSizeEv@Base 2.6.0
 _ZNK6KChart14TextLayoutItem11minimumSizeEv@Base 2.6.0
 _ZNK6KChart14TextLayoutItem12calcSizeHintERK5QFont@Base 2.6.0
 _ZNK6KChart14TextLayoutItem12realFontSizeEv@Base 2.6.0
 _ZNK6KChart14TextLayoutItem13textAlignmentEv@Base 2.6.0
 _ZNK6KChart14TextLayoutItem14textAttributesEv@Base 2.6.0
 _ZNK6KChart14TextLayoutItem15boundingPolygonEv@Base 2.6.0
 _ZNK6KChart14TextLayoutItem17autoReferenceAreaEv@Base 2.6.0
 _ZNK6KChart14TextLayoutItem17sizeHintUnrotatedEv@Base 2.6.0
 _ZNK6KChart14TextLayoutItem17unrotatedSizeHintERK5QFont@Base 2.6.0
 _ZNK6KChart14TextLayoutItem17unrotatedTextSizeE5QFont@Base 2.6.0
 _ZNK6KChart14TextLayoutItem19expandingDirectionsEv@Base 2.6.0
 _ZNK6KChart14TextLayoutItem19maybeUpdateRealFontEv@Base 2.6.0
 _ZNK6KChart14TextLayoutItem21fitFontSizeToGeometryEv@Base 2.6.0
 _ZNK6KChart14TextLayoutItem4textEv@Base 2.6.0
 _ZNK6KChart14TextLayoutItem7isEmptyEv@Base 2.6.0
 _ZNK6KChart14TextLayoutItem8geometryEv@Base 2.6.0
 _ZNK6KChart14TextLayoutItem8realFontEv@Base 2.6.0
 _ZNK6KChart14TextLayoutItem8sizeHintEv@Base 2.6.0
 _ZNK6KChart15AbstractDiagram10metaObjectEv@Base 2.6.0
 _ZNK6KChart15AbstractDiagram10unitPrefixEN2Qt11OrientationE@Base 2.6.0
 _ZNK6KChart15AbstractDiagram10unitPrefixEiN2Qt11OrientationEb@Base 2.6.0
 _ZNK6KChart15AbstractDiagram10unitSuffixEN2Qt11OrientationE@Base 2.6.0
 _ZNK6KChart15AbstractDiagram10unitSuffixEiN2Qt11OrientationEb@Base 2.6.0
 _ZNK6KChart15AbstractDiagram10visualRectERK11QModelIndex@Base 2.6.0
 _ZNK6KChart15AbstractDiagram11datasetPensEv@Base 2.6.0
 _ZNK6KChart15AbstractDiagram11percentModeEv@Base 2.6.0
 _ZNK6KChart15AbstractDiagram12antiAliasingEv@Base 2.6.0
 _ZNK6KChart15AbstractDiagram12valueForCellEii@Base 2.6.0
 _ZNK6KChart15AbstractDiagram12visualRegionERK11QModelIndex@Base 2.6.0
 _ZNK6KChart15AbstractDiagram13datasetLabelsEv@Base 2.6.0
 _ZNK6KChart15AbstractDiagram13isIndexHiddenERK11QModelIndex@Base 2.6.0
 _ZNK6KChart15AbstractDiagram13itemRowLabelsEv@Base 2.6.0
 _ZNK6KChart15AbstractDiagram14dataBoundariesEv@Base 2.6.0
 _ZNK6KChart15AbstractDiagram14datasetBrushesEv@Base 2.6.0
 _ZNK6KChart15AbstractDiagram14datasetMarkersEv@Base 2.6.0
 _ZNK6KChart15AbstractDiagram14verticalOffsetEv@Base 2.6.0
 _ZNK6KChart15AbstractDiagram15attributesModelEv@Base 2.6.0
 _ZNK6KChart15AbstractDiagram15checkInvariantsEb@Base 2.6.0
 _ZNK6KChart15AbstractDiagram15coordinatePlaneEv@Base 2.6.0
 _ZNK6KChart15AbstractDiagram16datasetDimensionEv@Base 2.6.0
 _ZNK6KChart15AbstractDiagram16horizontalOffsetEv@Base 2.6.0
 _ZNK6KChart15AbstractDiagram19dataValueAttributesERK11QModelIndex@Base 2.6.0
 _ZNK6KChart15AbstractDiagram19dataValueAttributesEi@Base 2.6.0
 _ZNK6KChart15AbstractDiagram19dataValueAttributesEv@Base 2.6.0
 _ZNK6KChart15AbstractDiagram22setDataBoundariesDirtyEv@Base 2.6.0
 _ZNK6KChart15AbstractDiagram24attributesModelRootIndexEv@Base 2.6.0
 _ZNK6KChart15AbstractDiagram24visualRegionForSelectionERK14QItemSelection@Base 2.6.0
 _ZNK6KChart15AbstractDiagram26conditionallyMapFromSourceERK11QModelIndex@Base 2.6.0
 _ZNK6KChart15AbstractDiagram27usesExternalAttributesModelEv@Base 2.6.0
 _ZNK6KChart15AbstractDiagram30allowOverlappingDataValueTextsEv@Base 2.6.0
 _ZNK6KChart15AbstractDiagram3penERK11QModelIndex@Base 2.6.0
 _ZNK6KChart15AbstractDiagram3penEi@Base 2.6.0
 _ZNK6KChart15AbstractDiagram3penEv@Base 2.6.0
 _ZNK6KChart15AbstractDiagram5brushERK11QModelIndex@Base 2.6.0
 _ZNK6KChart15AbstractDiagram5brushEi@Base 2.6.0
 _ZNK6KChart15AbstractDiagram5brushEv@Base 2.6.0
 _ZNK6KChart15AbstractDiagram6updateEv@Base 2.6.0
 _ZNK6KChart15AbstractDiagram7compareEPKS0_@Base 2.6.0
 _ZNK6KChart15AbstractDiagram7indexAtERK6QPoint@Base 2.6.0
 _ZNK6KChart15AbstractDiagram8isHiddenERK11QModelIndex@Base 2.6.0
 _ZNK6KChart15AbstractDiagram8isHiddenEi@Base 2.6.0
 _ZNK6KChart15AbstractDiagram8isHiddenEv@Base 2.6.0
 _ZNK6KChart15AbstractDiagram9indexesAtERK6QPoint@Base 2.6.0
 _ZNK6KChart15AbstractDiagram9indexesInERK5QRect@Base 2.6.0
 _ZNK6KChart15AttributesModel10headerDataEiN2Qt11OrientationEi@Base 2.6.0
 _ZNK6KChart15AttributesModel10metaObjectEv@Base 2.6.0
 _ZNK6KChart15AttributesModel11columnCountERK11QModelIndex@Base 2.6.0
 _ZNK6KChart15AttributesModel11paletteTypeEv@Base 2.6.0
 _ZNK6KChart15AttributesModel15defaultsForRoleEi@Base 2.6.0
 _ZNK6KChart15AttributesModel16datasetDimensionEv@Base 2.6.0
 _ZNK6KChart15AttributesModel17compareAttributesEiRK8QVariantS3_@Base 2.6.0
 _ZNK6KChart15AttributesModel17defaultHeaderDataEiN2Qt11OrientationEi@Base 2.6.0
 _ZNK6KChart15AttributesModel21compareHeaderDataMapsERK4QMapIiS1_Ii8QVariantEES6_@Base 2.6.0
 _ZNK6KChart15AttributesModel21isKnownAttributesRoleEi@Base 2.6.0
 _ZNK6KChart15AttributesModel4dataERK11QModelIndexi@Base 2.6.0
 _ZNK6KChart15AttributesModel4dataEi@Base 2.6.0
 _ZNK6KChart15AttributesModel4dataEii@Base 2.6.0
 _ZNK6KChart15AttributesModel7compareEPKS0_@Base 2.6.0
 _ZNK6KChart15AttributesModel8rowCountERK11QModelIndex@Base 2.6.0
 _ZNK6KChart15AttributesModel9modelDataEi@Base 2.6.0
 _ZNK6KChart15DiagramObserver10metaObjectEv@Base 2.6.0
 _ZNK6KChart15DiagramObserver7diagramEv@Base 2.6.0
 _ZNK6KChart15FrameAttributes12cornerRadiusEv@Base 2.6.0
 _ZNK6KChart15FrameAttributes3penEv@Base 2.6.0
 _ZNK6KChart15FrameAttributes7paddingEv@Base 2.6.0
 _ZNK6KChart15FrameAttributes9isVisibleEv@Base 2.6.0
 _ZNK6KChart15FrameAttributeseqERKS0_@Base 2.6.0
 _ZNK6KChart15RulerAttributes11labelMarginEv@Base 2.6.0
 _ZNK6KChart15RulerAttributes11tickMarkPenEd@Base 2.6.0
 _ZNK6KChart15RulerAttributes11tickMarkPenEv@Base 2.6.0
 _ZNK6KChart15RulerAttributes12rulerLinePenEv@Base 2.7.0
 _ZNK6KChart15RulerAttributes12tickMarkPensEv@Base 2.6.0
 _ZNK6KChart15RulerAttributes13showFirstTickEv@Base 2.6.0
 _ZNK6KChart15RulerAttributes13showRulerLineEv@Base 2.6.0
 _ZNK6KChart15RulerAttributes13tickMarkColorEv@Base 2.6.0
 _ZNK6KChart15RulerAttributes16hasTickMarkPenAtEd@Base 2.6.0
 _ZNK6KChart15RulerAttributes16majorTickMarkPenEv@Base 2.6.0
 _ZNK6KChart15RulerAttributes16minorTickMarkPenEv@Base 2.6.0
 _ZNK6KChart15RulerAttributes18showMajorTickMarksEv@Base 2.6.0
 _ZNK6KChart15RulerAttributes18showMinorTickMarksEv@Base 2.6.0
 _ZNK6KChart15RulerAttributes19majorTickMarkLengthEv@Base 2.6.0
 _ZNK6KChart15RulerAttributes19minorTickMarkLengthEv@Base 2.6.0
 _ZNK6KChart15RulerAttributes21majorTickMarkPenIsSetEv@Base 2.6.0
 _ZNK6KChart15RulerAttributes21minorTickMarkPenIsSetEv@Base 2.6.0
 _ZNK6KChart15RulerAttributes24majorTickMarkLengthIsSetEv@Base 2.6.0
 _ZNK6KChart15RulerAttributes24minorTickMarkLengthIsSetEv@Base 2.6.0
 _ZNK6KChart15RulerAttributeseqERKS0_@Base 2.6.0
 _ZNK6KChart16AbstractAreaBase15frameAttributesEv@Base 2.6.0
 _ZNK6KChart16AbstractAreaBase16getFrameLeadingsERiS1_S1_S1_@Base 2.6.0
 _ZNK6KChart16AbstractAreaBase20backgroundAttributesEv@Base 2.6.0
 _ZNK6KChart16AbstractAreaBase7compareEPKS0_@Base 2.6.0
 _ZNK6KChart16AbstractAreaBase9innerRectEv@Base 2.6.0
 _ZNK6KChart16MarkerAttributes10markerSizeEv@Base 2.6.0
 _ZNK6KChart16MarkerAttributes11markerColorEv@Base 2.6.0
 _ZNK6KChart16MarkerAttributes11markerStyleEv@Base 2.6.0
 _ZNK6KChart16MarkerAttributes14markerSizeModeEv@Base 2.6.0
 _ZNK6KChart16MarkerAttributes15markerStylesMapEv@Base 2.6.0
 _ZNK6KChart16MarkerAttributes16customMarkerPathEv@Base 2.6.0
 _ZNK6KChart16MarkerAttributes3penEv@Base 2.6.0
 _ZNK6KChart16MarkerAttributes6threeDEv@Base 2.6.0
 _ZNK6KChart16MarkerAttributes9isVisibleEv@Base 2.6.0
 _ZNK6KChart16MarkerAttributeseqERKS0_@Base 2.6.0
 _ZNK6KChart16MarkerLayoutItem11maximumSizeEv@Base 2.6.0
 _ZNK6KChart16MarkerLayoutItem11minimumSizeEv@Base 2.6.0
 _ZNK6KChart16MarkerLayoutItem19expandingDirectionsEv@Base 2.6.0
 _ZNK6KChart16MarkerLayoutItem7isEmptyEv@Base 2.6.0
 _ZNK6KChart16MarkerLayoutItem8geometryEv@Base 2.6.0
 _ZNK6KChart16MarkerLayoutItem8sizeHintEv@Base 2.6.0
 _ZNK6KChart16RelativePosition13referenceAreaEv@Base 2.6.0
 _ZNK6KChart16RelativePosition14referencePointEPd@Base 2.6.0
 _ZNK6KChart16RelativePosition15calculatedPointERK6QSizeF@Base 2.6.0
 _ZNK6KChart16RelativePosition15referencePointsEv@Base 2.6.0
 _ZNK6KChart16RelativePosition15verticalPaddingEv@Base 2.6.0
 _ZNK6KChart16RelativePosition17horizontalPaddingEv@Base 2.6.0
 _ZNK6KChart16RelativePosition17referencePositionEv@Base 2.6.0
 _ZNK6KChart16RelativePosition8rotationEv@Base 2.6.0
 _ZNK6KChart16RelativePosition9alignmentEv@Base 2.6.0
 _ZNK6KChart16RelativePositioneqERKS0_@Base 2.6.0
 _ZNK6KChart17DatasetProxyModel10headerDataEiN2Qt11OrientationEi@Base 2.6.0
 _ZNK6KChart17DatasetProxyModel10metaObjectEv@Base 2.6.0
 _ZNK6KChart17DatasetProxyModel11mapToSourceERK11QModelIndex@Base 2.6.0
 _ZNK6KChart17DatasetProxyModel13mapFromSourceERK11QModelIndex@Base 2.6.0
 _ZNK6KChart17DatasetProxyModel16filterAcceptsRowEiRK11QModelIndex@Base 2.6.0
 _ZNK6KChart17DatasetProxyModel19filterAcceptsColumnEiRK11QModelIndex@Base 2.6.0
 _ZNK6KChart17DatasetProxyModel19mapProxyRowToSourceERKi@Base 2.6.0
 _ZNK6KChart17DatasetProxyModel19mapSourceRowToProxyERKi@Base 2.6.0
 _ZNK6KChart17DatasetProxyModel22mapProxyColumnToSourceERKi@Base 2.6.0
 _ZNK6KChart17DatasetProxyModel22mapSourceColumnToProxyERKi@Base 2.6.0
 _ZNK6KChart17DatasetProxyModel4dataERK11QModelIndexi@Base 2.6.0
 _ZNK6KChart17DatasetProxyModel5buddyERK11QModelIndex@Base 2.6.0
 _ZNK6KChart17DatasetProxyModel5flagsERK11QModelIndex@Base 2.6.0
 _ZNK6KChart17DatasetProxyModel5indexEiiRK11QModelIndex@Base 2.6.0
 _ZNK6KChart17DatasetProxyModel6parentERK11QModelIndex@Base 2.6.0
 _ZNK6KChart17LeveyJenningsAxis10dateFormatEv@Base 2.6.0
 _ZNK6KChart17LeveyJenningsAxis10metaObjectEv@Base 2.6.0
 _ZNK6KChart17LeveyJenningsAxis4typeEv@Base 2.6.0
 _ZNK6KChart17LeveyJenningsAxis7compareEPKS0_@Base 2.6.0
 _ZNK6KChart18AbstractAreaWidget10metaObjectEv@Base 2.6.0
 _ZNK6KChart18AbstractAreaWidget12areaGeometryEv@Base 2.6.0
 _ZNK6KChart18AbstractLayoutItem15sizeHintChangedEv@Base 2.6.0
 _ZNK6KChart18AbstractPieDiagram10metaObjectEv@Base 2.6.0
 _ZNK6KChart18AbstractPieDiagram11granularityEv@Base 2.6.0
 _ZNK6KChart18AbstractPieDiagram13pieAttributesERK11QModelIndex@Base 2.6.0
 _ZNK6KChart18AbstractPieDiagram13pieAttributesEi@Base 2.6.0
 _ZNK6KChart18AbstractPieDiagram13pieAttributesEv@Base 2.6.0
 _ZNK6KChart18AbstractPieDiagram13startPositionEv@Base 2.6.0
 _ZNK6KChart18AbstractPieDiagram16autoRotateLabelsEv@Base 2.6.0
 _ZNK6KChart18AbstractPieDiagram19threeDPieAttributesERK11QModelIndex@Base 2.6.0
 _ZNK6KChart18AbstractPieDiagram19threeDPieAttributesEi@Base 2.6.0
 _ZNK6KChart18AbstractPieDiagram19threeDPieAttributesEv@Base 2.6.0
 _ZNK6KChart18AbstractPieDiagram7compareEPKS0_@Base 2.6.0
 _ZNK6KChart18AbstractProxyModel10metaObjectEv@Base 2.6.0
 _ZNK6KChart18AbstractProxyModel11mapToSourceERK11QModelIndex@Base 2.6.0
 _ZNK6KChart18AbstractProxyModel13mapFromSourceERK11QModelIndex@Base 2.6.0
 _ZNK6KChart18AbstractProxyModel5indexEiiRK11QModelIndex@Base 2.6.0
 _ZNK6KChart18AbstractProxyModel6parentERK11QModelIndex@Base 2.6.0
 _ZNK6KChart18StockBarAttributes10tickLengthEv@Base 2.6.0
 _ZNK6KChart18StockBarAttributes16candlestickWidthEv@Base 2.6.0
 _ZNK6KChart18StockBarAttributeseqERKS0_@Base 2.6.0
 _ZNK6KChart18TernaryLineDiagram10metaObjectEv@Base 2.6.0
 _ZNK6KChart18TernaryLineDiagram23calculateDataBoundariesEv@Base 2.6.0
 _ZNK6KChart19DataValueAttributes12showInfiniteEv@Base 2.6.0
 _ZNK6KChart19DataValueAttributes13decimalDigitsEv@Base 2.6.0
 _ZNK6KChart19DataValueAttributes13usePercentageEv@Base 2.6.0
 _ZNK6KChart19DataValueAttributes14textAttributesEv@Base 2.6.0
 _ZNK6KChart19DataValueAttributes15frameAttributesEv@Base 2.6.0
 _ZNK6KChart19DataValueAttributes16markerAttributesEv@Base 2.6.0
 _ZNK6KChart19DataValueAttributes16negativePositionEv@Base 2.6.0
 _ZNK6KChart19DataValueAttributes16positivePositionEv@Base 2.6.0
 _ZNK6KChart19DataValueAttributes17powerOfTenDivisorEv@Base 2.6.0
 _ZNK6KChart19DataValueAttributes20backgroundAttributesEv@Base 2.6.0
 _ZNK6KChart19DataValueAttributes24showRepetitiveDataLabelsEv@Base 2.6.0
 _ZNK6KChart19DataValueAttributes25showOverlappingDataLabelsEv@Base 2.6.0
 _ZNK6KChart19DataValueAttributes31mirrorNegativeValueTextRotationEv@Base 2.6.0
 _ZNK6KChart19DataValueAttributes6prefixEv@Base 2.6.0
 _ZNK6KChart19DataValueAttributes6suffixEv@Base 2.6.0
 _ZNK6KChart19DataValueAttributes9dataLabelEv@Base 2.6.0
 _ZNK6KChart19DataValueAttributes9isVisibleEv@Base 2.6.0
 _ZNK6KChart19DataValueAttributeseqERKS0_@Base 2.6.0
 _ZNK6KChart19TernaryPointDiagram10metaObjectEv@Base 2.6.0
 _ZNK6KChart19TernaryPointDiagram23calculateDataBoundariesEv@Base 2.6.0
 _ZNK6KChart19ThreeDBarAttributes15useShadowColorsEv@Base 2.6.0
 _ZNK6KChart19ThreeDBarAttributes5angleEv@Base 2.6.0
 _ZNK6KChart19ThreeDBarAttributeseqERKS0_@Base 2.6.0
 _ZNK6KChart19ThreeDPieAttributes15useShadowColorsEv@Base 2.6.0
 _ZNK6KChart19ThreeDPieAttributeseqERKS0_@Base 2.6.0
 _ZNK6KChart20AbstractPolarDiagram10metaObjectEv@Base 2.6.0
 _ZNK6KChart20AbstractPolarDiagram11columnCountEv@Base 2.6.0
 _ZNK6KChart20AbstractPolarDiagram20polarCoordinatePlaneEv@Base 2.6.0
 _ZNK6KChart20AbstractPolarDiagram8rowCountEv@Base 2.6.0
 _ZNK6KChart20AutoSpacerLayoutItem11maximumSizeEv@Base 2.6.0
 _ZNK6KChart20AutoSpacerLayoutItem11minimumSizeEv@Base 2.6.0
 _ZNK6KChart20AutoSpacerLayoutItem19expandingDirectionsEv@Base 2.6.0
 _ZNK6KChart20AutoSpacerLayoutItem7isEmptyEv@Base 2.6.0
 _ZNK6KChart20AutoSpacerLayoutItem8geometryEv@Base 2.6.0
 _ZNK6KChart20AutoSpacerLayoutItem8sizeHintEv@Base 2.6.0
 _ZNK6KChart20BackgroundAttributes10pixmapModeEv@Base 2.6.0
 _ZNK6KChart20BackgroundAttributes5brushEv@Base 2.6.0
 _ZNK6KChart20BackgroundAttributes6pixmapEv@Base 2.6.0
 _ZNK6KChart20BackgroundAttributes9isEqualToERKS0_b@Base 2.6.0
 _ZNK6KChart20BackgroundAttributes9isVisibleEv@Base 2.6.0
 _ZNK6KChart20BackgroundAttributeseqERKS0_@Base 2.6.0
 _ZNK6KChart20LeveyJenningsDiagram10metaObjectEv@Base 2.6.0
 _ZNK6KChart20LeveyJenningsDiagram11scanLinePenEv@Base 2.6.0
 _ZNK6KChart20LeveyJenningsDiagram13sensorChangesEv@Base 2.6.0
 _ZNK6KChart20LeveyJenningsDiagram17expectedMeanValueEv@Base 2.6.0
 _ZNK6KChart20LeveyJenningsDiagram19calculatedMeanValueEv@Base 2.6.0
 _ZNK6KChart20LeveyJenningsDiagram19fluidicsPackChangesEv@Base 2.6.0
 _ZNK6KChart20LeveyJenningsDiagram23calculateDataBoundariesEv@Base 2.6.0
 _ZNK6KChart20LeveyJenningsDiagram24lotChangedSymbolPositionEv@Base 2.6.0
 _ZNK6KChart20LeveyJenningsDiagram25expectedStandardDeviationEv@Base 2.6.0
 _ZNK6KChart20LeveyJenningsDiagram27calculatedStandardDeviationEv@Base 2.6.0
 _ZNK6KChart20LeveyJenningsDiagram27sensorChangedSymbolPositionEv@Base 2.6.0
 _ZNK6KChart20LeveyJenningsDiagram33calculateMeanAndStandardDeviationEv@Base 2.6.0
 _ZNK6KChart20LeveyJenningsDiagram33fluidicsPackChangedSymbolPositionEv@Base 2.6.0
 _ZNK6KChart20LeveyJenningsDiagram5cloneEv@Base 2.6.0
 _ZNK6KChart20LeveyJenningsDiagram6symbolENS0_6SymbolE@Base 2.6.0
 _ZNK6KChart20LeveyJenningsDiagram7compareEPKS0_@Base 2.6.0
 _ZNK6KChart20LeveyJenningsDiagram8iconRectEv@Base 2.6.0
 _ZNK6KChart20LeveyJenningsDiagram9timeRangeEv@Base 2.6.0
 _ZNK6KChart20PolarCoordinatePlane10metaObjectEv@Base 2.6.0
 _ZNK6KChart20PolarCoordinatePlane10radiusUnitEv@Base 2.6.0
 _ZNK6KChart20PolarCoordinatePlane10zoomCenterEv@Base 2.6.0
 _ZNK6KChart20PolarCoordinatePlane11zoomFactorXEv@Base 2.6.0
 _ZNK6KChart20PolarCoordinatePlane11zoomFactorYEv@Base 2.6.0
 _ZNK6KChart20PolarCoordinatePlane13startPositionEv@Base 2.6.0
 _ZNK6KChart20PolarCoordinatePlane14gridAttributesEb@Base 2.6.0
 _ZNK6KChart20PolarCoordinatePlane14translatePolarERK7QPointF@Base 2.6.0
 _ZNK6KChart20PolarCoordinatePlane20hasOwnGridAttributesEb@Base 2.6.0
 _ZNK6KChart20PolarCoordinatePlane21getDataDimensionsListEv@Base 2.6.0
 _ZNK6KChart20PolarCoordinatePlane9angleUnitEv@Base 2.6.0
 _ZNK6KChart20PolarCoordinatePlane9translateERK7QPointF@Base 2.6.0
 _ZNK6KChart20RadarCoordinatePlane10metaObjectEv@Base 2.6.0
 _ZNK6KChart20RadarCoordinatePlane14textAttributesEv@Base 2.6.0
 _ZNK6KChart20TextBubbleLayoutItem11borderWidthEv@Base 2.6.0
 _ZNK6KChart20TextBubbleLayoutItem11maximumSizeEv@Base 2.6.0
 _ZNK6KChart20TextBubbleLayoutItem11minimumSizeEv@Base 2.6.0
 _ZNK6KChart20TextBubbleLayoutItem14textAttributesEv@Base 2.6.0
 _ZNK6KChart20TextBubbleLayoutItem17autoReferenceAreaEv@Base 2.6.0
 _ZNK6KChart20TextBubbleLayoutItem19expandingDirectionsEv@Base 2.6.0
 _ZNK6KChart20TextBubbleLayoutItem4textEv@Base 2.6.0
 _ZNK6KChart20TextBubbleLayoutItem7isEmptyEv@Base 2.6.0
 _ZNK6KChart20TextBubbleLayoutItem8geometryEv@Base 2.6.0
 _ZNK6KChart20TextBubbleLayoutItem8sizeHintEv@Base 2.6.0
 _ZNK6KChart20ThreeDLineAttributes13lineXRotationEv@Base 2.6.0
 _ZNK6KChart20ThreeDLineAttributes13lineYRotationEv@Base 2.6.0
 _ZNK6KChart20ThreeDLineAttributeseqERKS0_@Base 2.6.0
 _ZNK6KChart21DatasetSelectorWidget10metaObjectEv@Base 2.6.0
 _ZNK6KChart21ModelDataCachePrivate26ModelSignalMapperConnector10metaObjectEv@Base 2.6.0
 _ZNK6KChart22AbstractTernaryDiagram10metaObjectEv@Base 2.6.0
 _ZNK6KChart22AbstractTernaryDiagram4axesEv@Base 2.6.0
 _ZNK6KChart22TernaryCoordinatePlane10metaObjectEv@Base 2.6.0
 _ZNK6KChart22TernaryCoordinatePlane10sizePolicyEv@Base 2.6.0
 _ZNK6KChart22TernaryCoordinatePlane15minimumSizeHintEv@Base 2.6.0
 _ZNK6KChart22TernaryCoordinatePlane21getDataDimensionsListEv@Base 2.6.0
 _ZNK6KChart22TernaryCoordinatePlane4gridEv@Base 2.6.0
 _ZNK6KChart22TernaryCoordinatePlane9translateERK7QPointF@Base 2.6.0
 _ZNK6KChart22ValueTrackerAttributes10arrowBrushEv@Base 2.6.0
 _ZNK6KChart22ValueTrackerAttributes10markerSizeEv@Base 2.6.0
 _ZNK6KChart22ValueTrackerAttributes11markerBrushEv@Base 2.6.0
 _ZNK6KChart22ValueTrackerAttributes12orientationsEv@Base 2.6.0
 _ZNK6KChart22ValueTrackerAttributes3penEv@Base 2.6.0
 _ZNK6KChart22ValueTrackerAttributes7linePenEv@Base 2.6.0
 _ZNK6KChart22ValueTrackerAttributes9areaBrushEv@Base 2.6.0
 _ZNK6KChart22ValueTrackerAttributes9isEnabledEv@Base 2.6.0
 _ZNK6KChart22ValueTrackerAttributes9markerPenEv@Base 2.6.0
 _ZNK6KChart22ValueTrackerAttributeseqERKS0_@Base 2.6.0
 _ZNK6KChart22VerticalLineLayoutItem11maximumSizeEv@Base 2.6.0
 _ZNK6KChart22VerticalLineLayoutItem11minimumSizeEv@Base 2.6.0
 _ZNK6KChart22VerticalLineLayoutItem19expandingDirectionsEv@Base 2.6.0
 _ZNK6KChart22VerticalLineLayoutItem7isEmptyEv@Base 2.6.0
 _ZNK6KChart22VerticalLineLayoutItem8geometryEv@Base 2.6.0
 _ZNK6KChart22VerticalLineLayoutItem8sizeHintEv@Base 2.6.0
 _ZNK6KChart23AbstractCoordinatePlane10metaObjectEv@Base 2.6.0
 _ZNK6KChart23AbstractCoordinatePlane11maximumSizeEv@Base 2.6.0
 _ZNK6KChart23AbstractCoordinatePlane11minimumSizeEv@Base 2.6.0
 _ZNK6KChart23AbstractCoordinatePlane14isVisiblePointERK7QPointF@Base 2.6.0
 _ZNK6KChart23AbstractCoordinatePlane19expandingDirectionsEv@Base 2.6.0
 _ZNK6KChart23AbstractCoordinatePlane20globalGridAttributesEv@Base 2.6.0
 _ZNK6KChart23AbstractCoordinatePlane22isCornerSpacersEnabledEv@Base 2.6.0
 _ZNK6KChart23AbstractCoordinatePlane24referenceCoordinatePlaneEv@Base 2.6.0
 _ZNK6KChart23AbstractCoordinatePlane26isRubberBandZoomingEnabledEv@Base 2.6.0
 _ZNK6KChart23AbstractCoordinatePlane6parentEv@Base 2.6.0
 _ZNK6KChart23AbstractCoordinatePlane7isEmptyEv@Base 2.6.0
 _ZNK6KChart23AbstractCoordinatePlane8diagramsEv@Base 2.6.0
 _ZNK6KChart23AbstractCoordinatePlane8geometryEv@Base 2.6.0
 _ZNK6KChart23AbstractCoordinatePlane8sizeHintEv@Base 2.6.0
 _ZNK6KChart24AbstractCartesianDiagram10metaObjectEv@Base 2.6.0
 _ZNK6KChart24AbstractCartesianDiagram16referenceDiagramEv@Base 2.6.0
 _ZNK6KChart24AbstractCartesianDiagram22referenceDiagramOffsetEv@Base 2.6.0
 _ZNK6KChart24AbstractCartesianDiagram4axesEv@Base 2.6.0
 _ZNK6KChart24AbstractCartesianDiagram7compareEPKS0_@Base 2.6.0
 _ZNK6KChart24AbstractThreeDAttributes10validDepthEv@Base 2.6.0
 _ZNK6KChart24AbstractThreeDAttributes11threeDBrushERK6QBrushRK6QRectF@Base 2.6.0
 _ZNK6KChart24AbstractThreeDAttributes20isThreeDBrushEnabledEv@Base 2.6.0
 _ZNK6KChart24AbstractThreeDAttributes5depthEv@Base 2.6.0
 _ZNK6KChart24AbstractThreeDAttributes9isEnabledEv@Base 2.6.0
 _ZNK6KChart24AbstractThreeDAttributeseqERKS0_@Base 2.6.0
 _ZNK6KChart24CartesianCoordinatePlane10metaObjectEv@Base 2.6.0
 _ZNK6KChart24CartesianCoordinatePlane10zoomCenterEv@Base 2.6.0
 _ZNK6KChart24CartesianCoordinatePlane11diagramAreaEv@Base 2.6.0
 _ZNK6KChart24CartesianCoordinatePlane11drawingAreaEv@Base 2.6.0
 _ZNK6KChart24CartesianCoordinatePlane11logicalAreaEv@Base 2.6.0
 _ZNK6KChart24CartesianCoordinatePlane11zoomFactorXEv@Base 2.6.0
 _ZNK6KChart24CartesianCoordinatePlane11zoomFactorYEv@Base 2.6.0
 _ZNK6KChart24CartesianCoordinatePlane13axesCalcModeXEv@Base 2.6.0
 _ZNK6KChart24CartesianCoordinatePlane13axesCalcModeYEv@Base 2.6.0
 _ZNK6KChart24CartesianCoordinatePlane13translateBackERK7QPointF@Base 2.6.0
 _ZNK6KChart24CartesianCoordinatePlane13verticalRangeEv@Base 2.6.0
 _ZNK6KChart24CartesianCoordinatePlane14gridAttributesEN2Qt11OrientationE@Base 2.6.0
 _ZNK6KChart24CartesianCoordinatePlane14heightForWidthEi@Base 2.6.0
 _ZNK6KChart24CartesianCoordinatePlane15horizontalRangeEv@Base 2.6.0
 _ZNK6KChart24CartesianCoordinatePlane16visibleDataRangeEv@Base 2.6.0
 _ZNK6KChart24CartesianCoordinatePlane16xAxisStartAtZeroEv@Base 2.6.0
 _ZNK6KChart24CartesianCoordinatePlane17hasHeightForWidthEv@Base 2.6.0
 _ZNK6KChart24CartesianCoordinatePlane18visibleDiagramAreaEv@Base 2.6.0
 _ZNK6KChart24CartesianCoordinatePlane19expandingDirectionsEv@Base 2.6.0
 _ZNK6KChart24CartesianCoordinatePlane20autoAdjustGridToZoomEv@Base 2.6.0
 _ZNK6KChart24CartesianCoordinatePlane20doesIsometricScalingEv@Base 2.6.0
 _ZNK6KChart24CartesianCoordinatePlane20hasOwnGridAttributesEN2Qt11OrientationE@Base 2.6.0
 _ZNK6KChart24CartesianCoordinatePlane21getDataDimensionsListEv@Base 2.6.0
 _ZNK6KChart24CartesianCoordinatePlane23isVerticalRangeReversedEv@Base 2.6.0
 _ZNK6KChart24CartesianCoordinatePlane25isHorizontalRangeReversedEv@Base 2.6.0
 _ZNK6KChart24CartesianCoordinatePlane28calculateRawDataBoundingRectEv@Base 2.6.0
 _ZNK6KChart24CartesianCoordinatePlane29autoAdjustVerticalRangeToDataEv@Base 2.6.0
 _ZNK6KChart24CartesianCoordinatePlane31autoAdjustHorizontalRangeToDataEv@Base 2.6.0
 _ZNK6KChart24CartesianCoordinatePlane33adjustedToMaxEmptyInnerPercentageERK6QRectFjj@Base 2.6.0
 _ZNK6KChart24CartesianCoordinatePlane34getRawDataBoundingRectFromDiagramsEv@Base 2.6.0
 _ZNK6KChart24CartesianCoordinatePlane35hasFixedDataCoordinateSpaceRelationEv@Base 2.6.0
 _ZNK6KChart24CartesianCoordinatePlane8sizeHintEv@Base 2.6.0
 _ZNK6KChart24CartesianCoordinatePlane9translateERK7QPointF@Base 2.6.0
 _ZNK6KChart24HorizontalLineLayoutItem11maximumSizeEv@Base 2.6.0
 _ZNK6KChart24HorizontalLineLayoutItem11minimumSizeEv@Base 2.6.0
 _ZNK6KChart24HorizontalLineLayoutItem19expandingDirectionsEv@Base 2.6.0
 _ZNK6KChart24HorizontalLineLayoutItem7isEmptyEv@Base 2.6.0
 _ZNK6KChart24HorizontalLineLayoutItem8geometryEv@Base 2.6.0
 _ZNK6KChart24HorizontalLineLayoutItem8sizeHintEv@Base 2.6.0
 _ZNK6KChart24LineWithMarkerLayoutItem11maximumSizeEv@Base 2.6.0
 _ZNK6KChart24LineWithMarkerLayoutItem11minimumSizeEv@Base 2.6.0
 _ZNK6KChart24LineWithMarkerLayoutItem19expandingDirectionsEv@Base 2.6.0
 _ZNK6KChart24LineWithMarkerLayoutItem7isEmptyEv@Base 2.6.0
 _ZNK6KChart24LineWithMarkerLayoutItem8geometryEv@Base 2.6.0
 _ZNK6KChart24LineWithMarkerLayoutItem8sizeHintEv@Base 2.6.0
 _ZNK6KChart27LeveyJenningsGridAttributes10rangeBrushENS0_5RangeE@Base 2.6.0
 _ZNK6KChart27LeveyJenningsGridAttributes13isGridVisibleENS0_8GridTypeE@Base 2.6.0
 _ZNK6KChart27LeveyJenningsGridAttributes7gridPenENS0_8GridTypeE@Base 2.6.0
 _ZNK6KChart27LeveyJenningsGridAttributeseqERKS0_@Base 2.6.0
 _ZNK6KChart28LeveyJenningsCoordinatePlane10metaObjectEv@Base 2.6.0
 _ZNK6KChart28LeveyJenningsCoordinatePlane13translateBackERK7QPointF@Base 2.6.0
 _ZNK6KChart28LeveyJenningsCoordinatePlane14gridAttributesEv@Base 2.6.0
 _ZNK6KChart28LeveyJenningsCoordinatePlane4gridEv@Base 2.6.0
 _ZNK6KChart30CartesianDiagramDataCompressor10mapToCacheERK11QModelIndex@Base 2.6.0
 _ZNK6KChart30CartesianDiagramDataCompressor10mapToCacheEii@Base 2.6.0
 _ZNK6KChart30CartesianDiagramDataCompressor10mapToModelERKNS0_13CachePositionE@Base 2.6.0
 _ZNK6KChart30CartesianDiagramDataCompressor10metaObjectEv@Base 2.6.0
 _ZNK6KChart30CartesianDiagramDataCompressor13modelDataRowsEv@Base 2.6.0
 _ZNK6KChart30CartesianDiagramDataCompressor14dataBoundariesEv@Base 2.6.0
 _ZNK6KChart30CartesianDiagramDataCompressor15aggregatedAttrsEPKNS_15AbstractDiagramERK11QModelIndexRKNS0_13CachePositionE@Base 2.6.0
 _ZNK6KChart30CartesianDiagramDataCompressor15indexesPerPixelEv@Base 2.6.0
 _ZNK6KChart30CartesianDiagramDataCompressor16mapsToModelIndexERKNS0_13CachePositionE@Base 2.6.0
 _ZNK6KChart30CartesianDiagramDataCompressor16modelDataColumnsEv@Base 2.6.0
 _ZNK6KChart30CartesianDiagramDataCompressor17retrieveModelDataERKNS0_13CachePositionE@Base 2.6.0
 _ZNK6KChart30CartesianDiagramDataCompressor4dataERKNS0_13CachePositionE@Base 2.6.0
 _ZNK6KChart30CartesianDiagramDataCompressor8isCachedERKNS0_13CachePositionE@Base 2.6.0
 _ZNK6KChart5Chart10metaObjectEv@Base 2.6.0
 _ZNK6KChart5Chart15frameAttributesEv@Base 2.6.0
 _ZNK6KChart5Chart16globalLeadingTopEv@Base 2.6.0
 _ZNK6KChart5Chart17globalLeadingLeftEv@Base 2.6.0
 _ZNK6KChart5Chart18globalLeadingRightEv@Base 2.6.0
 _ZNK6KChart5Chart18useNewLayoutSystemEv@Base 2.6.0
 _ZNK6KChart5Chart19globalLeadingBottomEv@Base 2.6.0
 _ZNK6KChart5Chart20backgroundAttributesEv@Base 2.6.0
 _ZNK6KChart6Legend10metaObjectEv@Base 2.6.0
 _ZNK6KChart6Legend11legendStyleEv@Base 2.6.0
 _ZNK6KChart6Legend11orientationEv@Base 2.6.0
 _ZNK6KChart6Legend12datasetCountEv@Base 2.6.0
 _ZNK6KChart6Legend13constDiagramsEv@Base 2.6.0
 _ZNK6KChart6Legend13referenceAreaEv@Base 2.6.0
 _ZNK6KChart6Legend13textAlignmentEv@Base 2.6.0
 _ZNK6KChart6Legend14heightForWidthEi@Base 2.6.0
 _ZNK6KChart6Legend14hiddenDatasetsEv@Base 2.6.0
 _ZNK6KChart6Legend14textAttributesEv@Base 2.6.0
 _ZNK6KChart6Legend15datasetIsHiddenEj@Base 2.6.0
 _ZNK6KChart6Legend15minimumSizeHintEv@Base 2.6.0
 _ZNK6KChart6Legend16floatingPositionEv@Base 2.6.0
 _ZNK6KChart6Legend16markerAttributesEj@Base 2.6.0
 _ZNK6KChart6Legend16markerAttributesEv@Base 2.6.0
 _ZNK6KChart6Legend17hasHeightForWidthEv@Base 2.6.0
 _ZNK6KChart6Legend19titleTextAttributesEv@Base 2.6.0
 _ZNK6KChart6Legend21legendSymbolAlignmentEv@Base 2.6.0
 _ZNK6KChart6Legend22useAutomaticMarkerSizeEv@Base 2.6.0
 _ZNK6KChart6Legend3penEj@Base 2.6.0
 _ZNK6KChart6Legend4pensEv@Base 2.6.0
 _ZNK6KChart6Legend4textEj@Base 2.6.0
 _ZNK6KChart6Legend5brushEj@Base 2.6.0
 _ZNK6KChart6Legend5cloneEv@Base 2.6.0
 _ZNK6KChart6Legend5textsEv@Base 2.6.0
 _ZNK6KChart6Legend7brushesEv@Base 2.6.0
 _ZNK6KChart6Legend7compareEPKS0_@Base 2.6.0
 _ZNK6KChart6Legend7diagramEv@Base 2.6.0
 _ZNK6KChart6Legend7spacingEv@Base 2.6.0
 _ZNK6KChart6Legend8diagramsEv@Base 2.6.0
 _ZNK6KChart6Legend8positionEv@Base 2.6.0
 _ZNK6KChart6Legend8sizeHintEv@Base 2.6.0
 _ZNK6KChart6Legend9alignmentEv@Base 2.6.0
 _ZNK6KChart6Legend9showLinesEv@Base 2.6.0
 _ZNK6KChart6Legend9sortOrderEv@Base 2.6.0
 _ZNK6KChart6Legend9titleTextEv@Base 2.6.0
 _ZNK6KChart6Widget10metaObjectEv@Base 2.6.0
 _ZNK6KChart6Widget16globalLeadingTopEv@Base 2.6.0
 _ZNK6KChart6Widget17globalLeadingLeftEv@Base 2.6.0
 _ZNK6KChart6Widget18globalLeadingRightEv@Base 2.6.0
 _ZNK6KChart6Widget19globalLeadingBottomEv@Base 2.6.0
 _ZNK6KChart6Widget4typeEv@Base 2.6.0
 _ZNK6KChart6Widget7subTypeEv@Base 2.6.0
 _ZNK6KChart7Measure10sizeOfAreaEPK7QObject@Base 2.6.0
 _ZNK6KChart7Measure15calculatedValueEPK7QObjectN11KChartEnums18MeasureOrientationE@Base 2.6.0
 _ZNK6KChart7Measure15calculatedValueERK6QSizeFN11KChartEnums18MeasureOrientationE@Base 2.6.0
 _ZNK6KChart7MeasureeqERKS0_@Base 2.6.0
 _ZNK6KChart7Palette10metaObjectEv@Base 2.6.0
 _ZNK6KChart7Palette4sizeEv@Base 2.6.0
 _ZNK6KChart7Palette7isValidEv@Base 2.6.0
 _ZNK6KChart7Palette8getBrushEi@Base 2.6.0
 _ZNK6KChart7Plotter10metaObjectEv@Base 2.6.0
 _ZNK6KChart7Plotter11PlotterType10compressorEv@Base 2.6.0
 _ZNK6KChart7Plotter11PlotterType14useCompressionEv@Base 2.6.0
 _ZNK6KChart7Plotter11PlotterType15attributesModelEv@Base 2.6.0
 _ZNK6KChart7Plotter11PlotterType17plotterCompressorEv@Base 2.6.0
 _ZNK6KChart7Plotter11PlotterType7diagramEv@Base 2.6.0
 _ZNK6KChart7Plotter14lineAttributesERK11QModelIndex@Base 2.6.0
 _ZNK6KChart7Plotter14lineAttributesEi@Base 2.6.0
 _ZNK6KChart7Plotter14lineAttributesEv@Base 2.6.0
 _ZNK6KChart7Plotter14maxSlopeChangeEv@Base 2.6.0
 _ZNK6KChart7Plotter15threeDItemDepthERK11QModelIndex@Base 2.6.0
 _ZNK6KChart7Plotter15threeDItemDepthEi@Base 2.6.0
 _ZNK6KChart7Plotter18useDataCompressionEv@Base 2.6.0
 _ZNK6KChart7Plotter20threeDLineAttributesERK11QModelIndex@Base 2.6.0
 _ZNK6KChart7Plotter20threeDLineAttributesEi@Base 2.6.0
 _ZNK6KChart7Plotter20threeDLineAttributesEv@Base 2.6.0
 _ZNK6KChart7Plotter21mergeRadiusPercentageEv@Base 2.6.0
 _ZNK6KChart7Plotter22valueTrackerAttributesERK11QModelIndex@Base 2.6.0
 _ZNK6KChart7Plotter23calculateDataBoundariesEv@Base 2.6.0
 _ZNK6KChart7Plotter24numberOfAbscissaSegmentsEv@Base 2.6.0
 _ZNK6KChart7Plotter24numberOfOrdinateSegmentsEv@Base 2.6.0
 _ZNK6KChart7Plotter4typeEv@Base 2.6.0
 _ZNK6KChart7Plotter5cloneEv@Base 2.6.0
 _ZNK6KChart7Plotter7compareEPKS0_@Base 2.6.0
 _ZNK6KChart8Position10isEastSideEv@Base 2.6.0
 _ZNK6KChart8Position10isFloatingEv@Base 2.6.0
 _ZNK6KChart8Position10isWestSideEv@Base 2.6.0
 _ZNK6KChart8Position11isNorthSideEv@Base 2.6.0
 _ZNK6KChart8Position11isSouthSideEv@Base 2.6.0
 _ZNK6KChart8Position13printableNameEv@Base 2.6.0
 _ZNK6KChart8Position4nameEv@Base 2.6.0
 _ZNK6KChart8Position5valueEv@Base 2.6.0
 _ZNK6KChart8Position6isPoleEv@Base 2.6.0
 _ZNK6KChart8Position8isCornerEv@Base 2.6.0
 _ZNK6KChart8Position9isUnknownEv@Base 2.6.0
 _ZNK6KChart8PositioneqERKS0_@Base 2.6.0
 _ZNK6KChart8PositioneqEi@Base 2.6.0
 _ZNK6KChart8TextArea10metaObjectEv@Base 2.6.0
 _ZNK6KChart8TextArea12areaGeometryEv@Base 2.6.0
 _ZTI11KChartEnums@Base 2.8.0
 _ZTIN6KChart10BarDiagram14BarDiagramTypeE@Base 2.6.0
 _ZTIN6KChart10BarDiagramE@Base 2.6.0
 _ZTIN6KChart10PieDiagramE@Base 2.6.0
 _ZTIN6KChart11LineDiagram15LineDiagramTypeE@Base 2.6.0
 _ZTIN6KChart11LineDiagramE@Base 2.6.0
 _ZTIN6KChart11RingDiagramE@Base 2.6.0
 _ZTIN6KChart11TernaryAxisE@Base 2.6.0
 _ZTIN6KChart12AbstractAreaE@Base 2.6.0
 _ZTIN6KChart12AbstractAxisE@Base 2.6.0
 _ZTIN6KChart12HeaderFooterE@Base 2.6.0
 _ZTIN6KChart12PolarDiagramE@Base 2.6.0
 _ZTIN6KChart12RadarDiagramE@Base 2.6.0
 _ZTIN6KChart12StockDiagramE@Base 2.6.0
 _ZTIN6KChart13CartesianAxisE@Base 2.6.0
 _ZTIN6KChart14LineLayoutItemE@Base 2.6.0
 _ZTIN6KChart14TextLayoutItemE@Base 2.6.0
 _ZTIN6KChart15AbstractDiagramE@Base 2.6.0
 _ZTIN6KChart15AttributesModelE@Base 2.6.0
 _ZTIN6KChart15DiagramObserverE@Base 2.6.0
 _ZTIN6KChart16AbstractAreaBaseE@Base 2.6.0
 _ZTIN6KChart16MarkerLayoutItemE@Base 2.6.0
 _ZTIN6KChart17DatasetProxyModelE@Base 2.6.0
 _ZTIN6KChart17LeveyJenningsAxisE@Base 2.6.0
 _ZTIN6KChart18AbstractAreaWidgetE@Base 2.6.0
 _ZTIN6KChart18AbstractLayoutItemE@Base 2.6.0
 _ZTIN6KChart18AbstractPieDiagramE@Base 2.6.0
 _ZTIN6KChart18AbstractProxyModelE@Base 2.6.0
 _ZTIN6KChart18TernaryLineDiagramE@Base 2.6.0
 _ZTIN6KChart19TernaryPointDiagramE@Base 2.6.0
 _ZTIN6KChart19ThreeDBarAttributesE@Base 2.6.0
 _ZTIN6KChart19ThreeDPieAttributesE@Base 2.6.0
 _ZTIN6KChart20AbstractPolarDiagramE@Base 2.6.0
 _ZTIN6KChart20AutoSpacerLayoutItemE@Base 2.6.0
 _ZTIN6KChart20LeveyJenningsDiagramE@Base 2.6.0
 _ZTIN6KChart20PolarCoordinatePlaneE@Base 2.6.0
 _ZTIN6KChart20RadarCoordinatePlaneE@Base 2.6.0
 _ZTIN6KChart20TextBubbleLayoutItemE@Base 2.6.0
 _ZTIN6KChart20ThreeDLineAttributesE@Base 2.6.0
 _ZTIN6KChart21DatasetSelectorWidgetE@Base 2.6.0
 _ZTIN6KChart21ModelDataCachePrivate26ModelSignalMapperConnectorE@Base 2.6.0
 _ZTIN6KChart22AbstractTernaryDiagramE@Base 2.6.0
 _ZTIN6KChart22TernaryCoordinatePlaneE@Base 2.6.0
 _ZTIN6KChart22VerticalLineLayoutItemE@Base 2.6.0
 _ZTIN6KChart23AbstractCoordinatePlaneE@Base 2.6.0
 _ZTIN6KChart24AbstractCartesianDiagramE@Base 2.6.0
 _ZTIN6KChart24AbstractThreeDAttributesE@Base 2.6.0
 _ZTIN6KChart24CartesianCoordinatePlaneE@Base 2.6.0
 _ZTIN6KChart24HorizontalLineLayoutItemE@Base 2.6.0
 _ZTIN6KChart24LineWithMarkerLayoutItemE@Base 2.6.0
 _ZTIN6KChart28LeveyJenningsCoordinatePlaneE@Base 2.6.0
 _ZTIN6KChart30CartesianDiagramDataCompressorE@Base 2.6.0
 _ZTIN6KChart5ChartE@Base 2.6.0
 _ZTIN6KChart6LegendE@Base 2.6.0
 _ZTIN6KChart6WidgetE@Base 2.6.0
 _ZTIN6KChart7PaletteE@Base 2.6.0
 _ZTIN6KChart7Plotter11PlotterTypeE@Base 2.6.0
 _ZTIN6KChart7PlotterE@Base 2.6.0
 _ZTIN6KChart8TextAreaE@Base 2.6.0
 _ZTS11KChartEnums@Base 2.8.0
 _ZTSN6KChart10BarDiagram14BarDiagramTypeE@Base 2.6.0
 _ZTSN6KChart10BarDiagramE@Base 2.6.0
 _ZTSN6KChart10PieDiagramE@Base 2.6.0
 _ZTSN6KChart11LineDiagram15LineDiagramTypeE@Base 2.6.0
 _ZTSN6KChart11LineDiagramE@Base 2.6.0
 _ZTSN6KChart11RingDiagramE@Base 2.6.0
 _ZTSN6KChart11TernaryAxisE@Base 2.6.0
 _ZTSN6KChart12AbstractAreaE@Base 2.6.0
 _ZTSN6KChart12AbstractAxisE@Base 2.6.0
 _ZTSN6KChart12HeaderFooterE@Base 2.6.0
 _ZTSN6KChart12PolarDiagramE@Base 2.6.0
 _ZTSN6KChart12RadarDiagramE@Base 2.6.0
 _ZTSN6KChart12StockDiagramE@Base 2.6.0
 _ZTSN6KChart13CartesianAxisE@Base 2.6.0
 _ZTSN6KChart14LineLayoutItemE@Base 2.6.0
 _ZTSN6KChart14TextLayoutItemE@Base 2.6.0
 _ZTSN6KChart15AbstractDiagramE@Base 2.6.0
 _ZTSN6KChart15AttributesModelE@Base 2.6.0
 _ZTSN6KChart15DiagramObserverE@Base 2.6.0
 _ZTSN6KChart16AbstractAreaBaseE@Base 2.6.0
 _ZTSN6KChart16MarkerLayoutItemE@Base 2.6.0
 _ZTSN6KChart17DatasetProxyModelE@Base 2.6.0
 _ZTSN6KChart17LeveyJenningsAxisE@Base 2.6.0
 _ZTSN6KChart18AbstractAreaWidgetE@Base 2.6.0
 _ZTSN6KChart18AbstractLayoutItemE@Base 2.6.0
 _ZTSN6KChart18AbstractPieDiagramE@Base 2.6.0
 _ZTSN6KChart18AbstractProxyModelE@Base 2.6.0
 _ZTSN6KChart18TernaryLineDiagramE@Base 2.6.0
 _ZTSN6KChart19TernaryPointDiagramE@Base 2.6.0
 _ZTSN6KChart19ThreeDBarAttributesE@Base 2.6.0
 _ZTSN6KChart19ThreeDPieAttributesE@Base 2.6.0
 _ZTSN6KChart20AbstractPolarDiagramE@Base 2.6.0
 _ZTSN6KChart20AutoSpacerLayoutItemE@Base 2.6.0
 _ZTSN6KChart20LeveyJenningsDiagramE@Base 2.6.0
 _ZTSN6KChart20PolarCoordinatePlaneE@Base 2.6.0
 _ZTSN6KChart20RadarCoordinatePlaneE@Base 2.6.0
 _ZTSN6KChart20TextBubbleLayoutItemE@Base 2.6.0
 _ZTSN6KChart20ThreeDLineAttributesE@Base 2.6.0
 _ZTSN6KChart21DatasetSelectorWidgetE@Base 2.6.0
 _ZTSN6KChart21ModelDataCachePrivate26ModelSignalMapperConnectorE@Base 2.6.0
 _ZTSN6KChart22AbstractTernaryDiagramE@Base 2.6.0
 _ZTSN6KChart22TernaryCoordinatePlaneE@Base 2.6.0
 _ZTSN6KChart22VerticalLineLayoutItemE@Base 2.6.0
 _ZTSN6KChart23AbstractCoordinatePlaneE@Base 2.6.0
 _ZTSN6KChart24AbstractCartesianDiagramE@Base 2.6.0
 _ZTSN6KChart24AbstractThreeDAttributesE@Base 2.6.0
 _ZTSN6KChart24CartesianCoordinatePlaneE@Base 2.6.0
 _ZTSN6KChart24HorizontalLineLayoutItemE@Base 2.6.0
 _ZTSN6KChart24LineWithMarkerLayoutItemE@Base 2.6.0
 _ZTSN6KChart28LeveyJenningsCoordinatePlaneE@Base 2.6.0
 _ZTSN6KChart30CartesianDiagramDataCompressorE@Base 2.6.0
 _ZTSN6KChart5ChartE@Base 2.6.0
 _ZTSN6KChart6LegendE@Base 2.6.0
 _ZTSN6KChart6WidgetE@Base 2.6.0
 _ZTSN6KChart7PaletteE@Base 2.6.0
 _ZTSN6KChart7Plotter11PlotterTypeE@Base 2.6.0
 _ZTSN6KChart7PlotterE@Base 2.6.0
 _ZTSN6KChart8TextAreaE@Base 2.6.0
 _ZTV11KChartEnums@Base 2.8.0
 _ZTVN6KChart10BarDiagramE@Base 2.6.0
 _ZTVN6KChart10PieDiagramE@Base 2.6.0
 _ZTVN6KChart11LineDiagramE@Base 2.6.0
 _ZTVN6KChart11RingDiagramE@Base 2.6.0
 _ZTVN6KChart11TernaryAxisE@Base 2.6.0
 _ZTVN6KChart12AbstractAreaE@Base 2.6.0
 _ZTVN6KChart12AbstractAxisE@Base 2.6.0
 _ZTVN6KChart12HeaderFooterE@Base 2.6.0
 _ZTVN6KChart12PolarDiagramE@Base 2.6.0
 _ZTVN6KChart12RadarDiagramE@Base 2.6.0
 _ZTVN6KChart12StockDiagramE@Base 2.6.0
 _ZTVN6KChart13CartesianAxisE@Base 2.6.0
 _ZTVN6KChart14LineLayoutItemE@Base 2.6.0
 _ZTVN6KChart14TextLayoutItemE@Base 2.6.0
 _ZTVN6KChart15AbstractDiagramE@Base 2.6.0
 _ZTVN6KChart15AttributesModelE@Base 2.6.0
 _ZTVN6KChart15DiagramObserverE@Base 2.6.0
 _ZTVN6KChart16AbstractAreaBaseE@Base 2.6.0
 _ZTVN6KChart16MarkerLayoutItemE@Base 2.6.0
 _ZTVN6KChart17DatasetProxyModelE@Base 2.6.0
 _ZTVN6KChart17LeveyJenningsAxisE@Base 2.6.0
 _ZTVN6KChart18AbstractAreaWidgetE@Base 2.6.0
 _ZTVN6KChart18AbstractLayoutItemE@Base 2.6.0
 _ZTVN6KChart18AbstractPieDiagramE@Base 2.6.0
 _ZTVN6KChart18AbstractProxyModelE@Base 2.6.0
 _ZTVN6KChart18TernaryLineDiagramE@Base 2.6.0
 _ZTVN6KChart19TernaryPointDiagramE@Base 2.6.0
 _ZTVN6KChart19ThreeDBarAttributesE@Base 2.6.0
 _ZTVN6KChart19ThreeDPieAttributesE@Base 2.6.0
 _ZTVN6KChart20AbstractPolarDiagramE@Base 2.6.0
 _ZTVN6KChart20AutoSpacerLayoutItemE@Base 2.6.0
 _ZTVN6KChart20LeveyJenningsDiagramE@Base 2.6.0
 _ZTVN6KChart20PolarCoordinatePlaneE@Base 2.6.0
 _ZTVN6KChart20RadarCoordinatePlaneE@Base 2.6.0
 _ZTVN6KChart20TextBubbleLayoutItemE@Base 2.6.0
 _ZTVN6KChart20ThreeDLineAttributesE@Base 2.6.0
 _ZTVN6KChart21DatasetSelectorWidgetE@Base 2.6.0
 _ZTVN6KChart21ModelDataCachePrivate26ModelSignalMapperConnectorE@Base 2.6.0
 _ZTVN6KChart22AbstractTernaryDiagramE@Base 2.6.0
 _ZTVN6KChart22TernaryCoordinatePlaneE@Base 2.6.0
 _ZTVN6KChart22VerticalLineLayoutItemE@Base 2.6.0
 _ZTVN6KChart23AbstractCoordinatePlaneE@Base 2.6.0
 _ZTVN6KChart24AbstractCartesianDiagramE@Base 2.6.0
 _ZTVN6KChart24AbstractThreeDAttributesE@Base 2.6.0
 _ZTVN6KChart24CartesianCoordinatePlaneE@Base 2.6.0
 _ZTVN6KChart24HorizontalLineLayoutItemE@Base 2.6.0
 _ZTVN6KChart24LineWithMarkerLayoutItemE@Base 2.6.0
 _ZTVN6KChart28LeveyJenningsCoordinatePlaneE@Base 2.6.0
 _ZTVN6KChart30CartesianDiagramDataCompressorE@Base 2.6.0
 _ZTVN6KChart5ChartE@Base 2.6.0
 _ZTVN6KChart6LegendE@Base 2.6.0
 _ZTVN6KChart6WidgetE@Base 2.6.0
 _ZTVN6KChart7PaletteE@Base 2.6.0
 _ZTVN6KChart7Plotter11PlotterTypeE@Base 2.6.0
 _ZTVN6KChart7PlotterE@Base 2.6.0
 _ZTVN6KChart8TextAreaE@Base 2.6.0
 _Zls6QDebugN6KChart13CartesianAxis8PositionE@Base 2.6.2
 _Zls6QDebugRKN6KChart13PieAttributesE@Base 2.6.0
 _Zls6QDebugRKN6KChart14GridAttributesE@Base 2.6.0
 _Zls6QDebugRKN6KChart14LineAttributesE@Base 2.6.0
 _Zls6QDebugRKN6KChart14TextAttributesE@Base 2.6.0
 _Zls6QDebugRKN6KChart15FrameAttributesE@Base 2.6.0
 _Zls6QDebugRKN6KChart15RulerAttributesE@Base 2.6.0
 _Zls6QDebugRKN6KChart16MarkerAttributesE@Base 2.6.0
 _Zls6QDebugRKN6KChart16RelativePositionE@Base 2.6.0
 _Zls6QDebugRKN6KChart19DataValueAttributesE@Base 2.6.0
 _Zls6QDebugRKN6KChart19ThreeDBarAttributesE@Base 2.6.0
 _Zls6QDebugRKN6KChart19ThreeDPieAttributesE@Base 2.6.0
 _Zls6QDebugRKN6KChart20BackgroundAttributesE@Base 2.6.0
 _Zls6QDebugRKN6KChart20ThreeDLineAttributesE@Base 2.6.0
 _Zls6QDebugRKN6KChart22ValueTrackerAttributesE@Base 2.6.0
 _Zls6QDebugRKN6KChart24AbstractThreeDAttributesE@Base 2.6.0
 _Zls6QDebugRKN6KChart7MeasureE@Base 2.6.0
 _Zls6QDebugRKN6KChart8PositionE@Base 2.6.0
 (c++)"non-virtual thunk to KChart::AbstractArea::areaGeometry() const@Base" 2.6.0
 (c++)"non-virtual thunk to KChart::AbstractArea::paintAll(QPainter&)@Base" 2.6.0
 (c++)"non-virtual thunk to KChart::AbstractArea::positionHasChanged()@Base" 2.6.0
 (c++)"non-virtual thunk to KChart::AbstractArea::~AbstractArea()@Base" 2.6.0
 (c++)"non-virtual thunk to KChart::AbstractAreaWidget::areaGeometry() const@Base" 2.6.0
 (c++)"non-virtual thunk to KChart::AbstractAreaWidget::positionHasChanged()@Base" 2.6.0
 (c++)"non-virtual thunk to KChart::AbstractAreaWidget::~AbstractAreaWidget()@Base" 2.6.0
 (c++)"non-virtual thunk to KChart::AbstractAxis::~AbstractAxis()@Base" 2.6.0
 (c++)"non-virtual thunk to KChart::AbstractCartesianDiagram::~AbstractCartesianDiagram()@Base" 2.6.0
 (c++)"non-virtual thunk to KChart::AbstractCoordinatePlane::expandingDirections() const@Base" 2.6.0
 (c++)"non-virtual thunk to KChart::AbstractCoordinatePlane::geometry() const@Base" 2.6.0
 (c++)"non-virtual thunk to KChart::AbstractCoordinatePlane::isEmpty() const@Base" 2.6.0
 (c++)"non-virtual thunk to KChart::AbstractCoordinatePlane::maximumSize() const@Base" 2.6.0
 (c++)"non-virtual thunk to KChart::AbstractCoordinatePlane::minimumSize() const@Base" 2.6.0
 (c++)"non-virtual thunk to KChart::AbstractCoordinatePlane::setGeometry(QRect const&)@Base" 2.6.0
 (c++)"non-virtual thunk to KChart::AbstractCoordinatePlane::sizeHint() const@Base" 2.6.0
 (c++)"non-virtual thunk to KChart::AbstractCoordinatePlane::~AbstractCoordinatePlane()@Base" 2.6.0
 (c++)"non-virtual thunk to KChart::AbstractDiagram::~AbstractDiagram()@Base" 2.6.0
 (c++)"non-virtual thunk to KChart::AbstractPieDiagram::~AbstractPieDiagram()@Base" 2.6.0
 (c++)"non-virtual thunk to KChart::AbstractTernaryDiagram::~AbstractTernaryDiagram()@Base" 2.6.0
 (c++)"non-virtual thunk to KChart::BarDiagram::~BarDiagram()@Base" 2.6.0
 (c++)"non-virtual thunk to KChart::CartesianAxis::expandingDirections() const@Base" 2.6.0
 (c++)"non-virtual thunk to KChart::CartesianAxis::geometry() const@Base" 2.6.0
 (c++)"non-virtual thunk to KChart::CartesianAxis::isEmpty() const@Base" 2.6.0
 (c++)"non-virtual thunk to KChart::CartesianAxis::maximumSize() const@Base" 2.6.0
 (c++)"non-virtual thunk to KChart::CartesianAxis::minimumSize() const@Base" 2.6.0
 (c++)"non-virtual thunk to KChart::CartesianAxis::paint(QPainter*)@Base" 2.6.0
 (c++)"non-virtual thunk to KChart::CartesianAxis::paintCtx(KChart::PaintContext*)@Base" 2.6.0
 (c++)"non-virtual thunk to KChart::CartesianAxis::setGeometry(QRect const&)@Base" 2.6.0
 (c++)"non-virtual thunk to KChart::CartesianAxis::sizeHint() const@Base" 2.6.0
 (c++)"non-virtual thunk to KChart::CartesianAxis::~CartesianAxis()@Base" 2.6.0
 (c++)"non-virtual thunk to KChart::CartesianCoordinatePlane::expandingDirections() const@Base" 2.6.0
 (c++)"non-virtual thunk to KChart::CartesianCoordinatePlane::hasHeightForWidth() const@Base" 2.6.0
 (c++)"non-virtual thunk to KChart::CartesianCoordinatePlane::heightForWidth(int) const@Base" 2.6.0
 (c++)"non-virtual thunk to KChart::CartesianCoordinatePlane::paint(QPainter*)@Base" 2.6.0
 (c++)"non-virtual thunk to KChart::CartesianCoordinatePlane::setGeometry(QRect const&)@Base" 2.6.0
 (c++)"non-virtual thunk to KChart::CartesianCoordinatePlane::sizeHint() const@Base" 2.6.0
 (c++)"non-virtual thunk to KChart::CartesianCoordinatePlane::~CartesianCoordinatePlane()@Base" 2.6.0
 (c++)"non-virtual thunk to KChart::Chart::~Chart()@Base" 2.6.0
 (c++)"non-virtual thunk to KChart::DatasetSelectorWidget::~DatasetSelectorWidget()@Base" 2.6.0
 (c++)"non-virtual thunk to KChart::HeaderFooter::~HeaderFooter()@Base" 2.6.0
 (c++)"non-virtual thunk to KChart::Legend::~Legend()@Base" 2.6.0
 (c++)"non-virtual thunk to KChart::LeveyJenningsAxis::paintCtx(KChart::PaintContext*)@Base" 2.6.0
 (c++)"non-virtual thunk to KChart::LeveyJenningsAxis::~LeveyJenningsAxis()@Base" 2.6.0
 (c++)"non-virtual thunk to KChart::LeveyJenningsCoordinatePlane::~LeveyJenningsCoordinatePlane()@Base" 2.6.0
 (c++)"non-virtual thunk to KChart::LeveyJenningsDiagram::~LeveyJenningsDiagram()@Base" 2.6.0
 (c++)"non-virtual thunk to KChart::LineDiagram::~LineDiagram()@Base" 2.6.0
 (c++)"non-virtual thunk to KChart::PieDiagram::~PieDiagram()@Base" 2.6.0
 (c++)"non-virtual thunk to KChart::Plotter::~Plotter()@Base" 2.6.0
 (c++)"non-virtual thunk to KChart::PolarCoordinatePlane::paint(QPainter*)@Base" 2.6.0
 (c++)"non-virtual thunk to KChart::PolarCoordinatePlane::~PolarCoordinatePlane()@Base" 2.6.0
 (c++)"non-virtual thunk to KChart::PolarDiagram::~PolarDiagram()@Base" 2.6.0
 (c++)"non-virtual thunk to KChart::RadarCoordinatePlane::~RadarCoordinatePlane()@Base" 2.6.0
 (c++)"non-virtual thunk to KChart::RadarDiagram::~RadarDiagram()@Base" 2.6.0
 (c++)"non-virtual thunk to KChart::RingDiagram::~RingDiagram()@Base" 2.6.0
 (c++)"non-virtual thunk to KChart::StockDiagram::~StockDiagram()@Base" 2.6.0
 (c++)"non-virtual thunk to KChart::TernaryAxis::expandingDirections() const@Base" 2.6.0
 (c++)"non-virtual thunk to KChart::TernaryAxis::geometry() const@Base" 2.6.0
 (c++)"non-virtual thunk to KChart::TernaryAxis::isEmpty() const@Base" 2.6.0
 (c++)"non-virtual thunk to KChart::TernaryAxis::maximumSize() const@Base" 2.6.0
 (c++)"non-virtual thunk to KChart::TernaryAxis::minimumSize() const@Base" 2.6.0
 (c++)"non-virtual thunk to KChart::TernaryAxis::paint(QPainter*)@Base" 2.6.0
 (c++)"non-virtual thunk to KChart::TernaryAxis::paintAll(QPainter&)@Base" 2.6.0
 (c++)"non-virtual thunk to KChart::TernaryAxis::paintCtx(KChart::PaintContext*)@Base" 2.6.0
 (c++)"non-virtual thunk to KChart::TernaryAxis::setGeometry(QRect const&)@Base" 2.6.0
 (c++)"non-virtual thunk to KChart::TernaryAxis::sizeHint() const@Base" 2.6.0
 (c++)"non-virtual thunk to KChart::TernaryAxis::~TernaryAxis()@Base" 2.6.0
 (c++)"non-virtual thunk to KChart::TernaryCoordinatePlane::paint(QPainter*)@Base" 2.6.0
 (c++)"non-virtual thunk to KChart::TernaryCoordinatePlane::~TernaryCoordinatePlane()@Base" 2.6.0
 (c++)"non-virtual thunk to KChart::TernaryLineDiagram::~TernaryLineDiagram()@Base" 2.6.0
 (c++)"non-virtual thunk to KChart::TernaryPointDiagram::~TernaryPointDiagram()@Base" 2.6.0
 (c++)"non-virtual thunk to KChart::TextArea::areaGeometry() const@Base" 2.6.0
 (c++)"non-virtual thunk to KChart::TextArea::paintAll(QPainter&)@Base" 2.6.0
 (c++)"non-virtual thunk to KChart::TextArea::positionHasChanged()@Base" 2.6.0
 (c++)"non-virtual thunk to KChart::TextArea::~TextArea()@Base" 2.6.0
 (c++)"non-virtual thunk to KChart::Widget::~Widget()@Base" 2.6.0
