# SymbolsHelper-Confirmed: 2.8.0 amd64 i386
libKGantt.so.2 libkgantt2 #MINVER#
* Build-Depends-Package: libkgantt-dev
 _ZN4KDAB8UnitTest12TestRegistry14deleteInstanceEv@Base 2.6.0
 _ZN4KDAB8UnitTest12TestRegistry19registerTestFactoryEPKNS0_11TestFactoryEPKc@Base 2.6.0
 _ZN4KDAB8UnitTest12TestRegistry5mSelfE@Base 2.6.0
 _ZN4KDAB8UnitTest12TestRegistry8instanceEv@Base 2.6.0
 _ZN4KDAB8UnitTest12TestRegistryC1Ev@Base 2.6.0
 _ZN4KDAB8UnitTest12TestRegistryC2Ev@Base 2.6.0
 _ZN4KDAB8UnitTest12TestRegistryD1Ev@Base 2.6.0
 _ZN4KDAB8UnitTest12TestRegistryD2Ev@Base 2.6.0
 _ZN4KDAB8UnitTest6RunnerD1Ev@Base 2.6.0
 _ZN4KDAB8UnitTest6RunnerD2Ev@Base 2.6.0
 _ZN6KGantt10Constraint10setDataMapERK4QMapIi8QVariantE@Base 2.6.0
 _ZN6KGantt10Constraint7setDataEiRK8QVariant@Base 2.6.0
 _ZN6KGantt10ConstraintC1ERK11QModelIndexS3_NS0_4TypeENS0_12RelationTypeERK4QMapIi8QVariantE@Base 2.6.0
 _ZN6KGantt10ConstraintC1ERKS0_@Base 2.6.0
 _ZN6KGantt10ConstraintC1Ev@Base 2.6.0
 _ZN6KGantt10ConstraintC2ERK11QModelIndexS3_NS0_4TypeENS0_12RelationTypeERK4QMapIi8QVariantE@Base 2.6.0
 _ZN6KGantt10ConstraintC2ERKS0_@Base 2.6.0
 _ZN6KGantt10ConstraintC2Ev@Base 2.6.0
 _ZN6KGantt10ConstraintD1Ev@Base 2.6.0
 _ZN6KGantt10ConstraintD2Ev@Base 2.6.0
 _ZN6KGantt10ConstraintaSERKS0_@Base 2.6.0
 _ZN6KGantt10ProxyModel10removeRoleEi@Base 2.6.0
 _ZN6KGantt10ProxyModel11qt_metacallEN11QMetaObject4CallEiPPv@Base 2.6.0
 _ZN6KGantt10ProxyModel11qt_metacastEPKc@Base 2.6.0
 _ZN6KGantt10ProxyModel12removeColumnEi@Base 2.6.0
 _ZN6KGantt10ProxyModel16staticMetaObjectE@Base 2.6.0
 _ZN6KGantt10ProxyModel4initEv@Base 2.6.0
 _ZN6KGantt10ProxyModel7setDataERK11QModelIndexRK8QVarianti@Base 2.6.0
 _ZN6KGantt10ProxyModel7setRoleEii@Base 2.6.0
 _ZN6KGantt10ProxyModel9setColumnEii@Base 2.6.0
 _ZN6KGantt10ProxyModelC1EP7QObject@Base 2.6.0
 _ZN6KGantt10ProxyModelC2EP7QObject@Base 2.6.0
 _ZN6KGantt10ProxyModelD0Ev@Base 2.6.0
 _ZN6KGantt10ProxyModelD1Ev@Base 2.6.0
 _ZN6KGantt10ProxyModelD2Ev@Base 2.6.0
 _ZN6KGantt12AbstractGrid11gridChangedEv@Base 2.6.0
 _ZN6KGantt12AbstractGrid11qt_metacallEN11QMetaObject4CallEiPPv@Base 2.6.0
 _ZN6KGantt12AbstractGrid11qt_metacastEPKc@Base 2.6.0
 _ZN6KGantt12AbstractGrid12setRootIndexERK11QModelIndex@Base 2.6.0
 _ZN6KGantt12AbstractGrid14drawBackgroundEP8QPainterRK6QRectF@Base 2.6.0
 _ZN6KGantt12AbstractGrid14drawForegroundEP8QPainterRK6QRectF@Base 2.6.0
 _ZN6KGantt12AbstractGrid16staticMetaObjectE@Base 2.6.0
 _ZN6KGantt12AbstractGrid8setModelEP18QAbstractItemModel@Base 2.6.0
 _ZN6KGantt12AbstractGridC1EP7QObject@Base 2.6.0
 _ZN6KGantt12AbstractGridC2EP7QObject@Base 2.6.0
 _ZN6KGantt12AbstractGridD0Ev@Base 2.6.0
 _ZN6KGantt12AbstractGridD1Ev@Base 2.6.0
 _ZN6KGantt12AbstractGridD2Ev@Base 2.6.0
 _ZN6KGantt12DateTimeGrid11paintHeaderEP8QPainterRK6QRectFS5_dP7QWidget@Base 2.6.0
 _ZN6KGantt12DateTimeGrid11qt_metacallEN11QMetaObject4CallEiPPv@Base 2.6.0
 _ZN6KGantt12DateTimeGrid11qt_metacastEPKc@Base 2.6.0
 _ZN6KGantt12DateTimeGrid11setDayWidthEd@Base 2.6.0
 _ZN6KGantt12DateTimeGrid11setFreeDaysERK4QSetIN2Qt9DayOfWeekEE@Base 2.6.0
 _ZN6KGantt12DateTimeGrid12setWeekStartEN2Qt9DayOfWeekE@Base 2.6.0
 _ZN6KGantt12DateTimeGrid14drawBackgroundEP8QPainterRK6QRectF@Base 2.6.0
 _ZN6KGantt12DateTimeGrid14drawForegroundEP8QPainterRK6QRectF@Base 2.6.0
 _ZN6KGantt12DateTimeGrid16setFreeDaysBrushE6QBrush@Base 2.6.0
 _ZN6KGantt12DateTimeGrid16setRowSeparatorsEb@Base 2.6.0
 _ZN6KGantt12DateTimeGrid16setStartDateTimeERK9QDateTime@Base 2.6.0
 _ZN6KGantt12DateTimeGrid16staticMetaObjectE@Base 2.6.0
 _ZN6KGantt12DateTimeGrid17drawDayBackgroundEP8QPainterRK6QRectFRK5QDate@Base 2.6.0
 _ZN6KGantt12DateTimeGrid17drawDayForegroundEP8QPainterRK6QRectFRK5QDate@Base 2.6.0
 _ZN6KGantt12DateTimeGrid19paintDayScaleHeaderEP8QPainterRK6QRectFS5_dP7QWidget@Base 2.6.0
 _ZN6KGantt12DateTimeGrid20paintHourScaleHeaderEP8QPainterRK6QRectFS5_dP7QWidget@Base 2.6.0
 _ZN6KGantt12DateTimeGrid20paintWeekScaleHeaderEP8QPainterRK6QRectFS5_dP7QWidget@Base 2.6.0
 _ZN6KGantt12DateTimeGrid21paintMonthScaleHeaderEP8QPainterRK6QRectFS5_dP7QWidget@Base 2.6.0
 _ZN6KGantt12DateTimeGrid21setNoInformationBrushERK6QBrush@Base 2.6.0
 _ZN6KGantt12DateTimeGrid22paintUserDefinedHeaderEP8QPainterRK6QRectFS5_dPKNS_22DateTimeScaleFormatterEP7QWidget@Base 2.6.0
 _ZN6KGantt12DateTimeGrid24setUserDefinedLowerScaleEPNS_22DateTimeScaleFormatterE@Base 2.6.0
 _ZN6KGantt12DateTimeGrid24setUserDefinedUpperScaleEPNS_22DateTimeScaleFormatterE@Base 2.6.0
 _ZN6KGantt12DateTimeGrid8setScaleENS0_5ScaleE@Base 2.6.0
 _ZN6KGantt12DateTimeGrid9paintGridEP8QPainterRK6QRectFS5_PNS_21AbstractRowControllerEP7QWidget@Base 2.6.0
 _ZN6KGantt12DateTimeGridC1Ev@Base 2.6.0
 _ZN6KGantt12DateTimeGridC2Ev@Base 2.6.0
 _ZN6KGantt12DateTimeGridD0Ev@Base 2.6.0
 _ZN6KGantt12DateTimeGridD1Ev@Base 2.6.0
 _ZN6KGantt12DateTimeGridD2Ev@Base 2.6.0
 _ZN6KGantt12GraphicsItem10itemChangeEN13QGraphicsItem18GraphicsItemChangeERK8QVariant@Base 2.7.0
 _ZN6KGantt12GraphicsItem10updateItemERKNS_4SpanERK21QPersistentModelIndex@Base 2.7.0
 _ZN6KGantt12GraphicsItem11updateModelEv@Base 2.7.0
 _ZN6KGantt12GraphicsItem12focusInEventEP11QFocusEvent@Base 2.7.0
 _ZN6KGantt12GraphicsItem14hoverMoveEventEP24QGraphicsSceneHoverEvent@Base 2.7.0
 _ZN6KGantt12GraphicsItem14mouseMoveEventEP24QGraphicsSceneMouseEvent@Base 2.7.0
 _ZN6KGantt12GraphicsItem15hoverLeaveEventEP24QGraphicsSceneHoverEvent@Base 2.7.0
 _ZN6KGantt12GraphicsItem15mousePressEventEP24QGraphicsSceneMouseEvent@Base 2.7.0
 _ZN6KGantt12GraphicsItem15setBoundingRectERK6QRectF@Base 2.7.0
 _ZN6KGantt12GraphicsItem16addEndConstraintEPNS_22ConstraintGraphicsItemE@Base 2.7.0
 _ZN6KGantt12GraphicsItem17mouseReleaseEventEP24QGraphicsSceneMouseEvent@Base 2.7.0
 _ZN6KGantt12GraphicsItem18addStartConstraintEPNS_22ConstraintGraphicsItemE@Base 2.7.0
 _ZN6KGantt12GraphicsItem18constraintsChangedEv@Base 2.7.0
 _ZN6KGantt12GraphicsItem19removeEndConstraintEPNS_22ConstraintGraphicsItemE@Base 2.7.0
 _ZN6KGantt12GraphicsItem19updateItemFromMouseERK7QPointF@Base 2.7.0
 _ZN6KGantt12GraphicsItem21mouseDoubleClickEventEP24QGraphicsSceneMouseEvent@Base 2.7.0
 _ZN6KGantt12GraphicsItem21removeStartConstraintEPNS_22ConstraintGraphicsItemE@Base 2.7.0
 _ZN6KGantt12GraphicsItem21updateConstraintItemsEv@Base 2.7.0
 _ZN6KGantt12GraphicsItem4initEv@Base 2.7.0
 _ZN6KGantt12GraphicsItem5paintEP8QPainterPK24QStyleOptionGraphicsItemP7QWidget@Base 2.7.0
 _ZN6KGantt12GraphicsItem7setRectERK6QRectF@Base 2.7.0
 _ZN6KGantt12GraphicsItem8setIndexERK21QPersistentModelIndex@Base 2.7.0
 _ZN6KGantt12GraphicsItemC1EP13QGraphicsItemPNS_13GraphicsSceneE@Base 2.7.0
 _ZN6KGantt12GraphicsItemC1ERK11QModelIndexP13QGraphicsItemPNS_13GraphicsSceneE@Base 2.7.0
 _ZN6KGantt12GraphicsItemC2EP13QGraphicsItemPNS_13GraphicsSceneE@Base 2.7.0
 _ZN6KGantt12GraphicsItemC2ERK11QModelIndexP13QGraphicsItemPNS_13GraphicsSceneE@Base 2.7.0
 _ZN6KGantt12GraphicsItemD0Ev@Base 2.7.0
 _ZN6KGantt12GraphicsItemD1Ev@Base 2.7.0
 _ZN6KGantt12GraphicsItemD2Ev@Base 2.7.0
 _ZN6KGantt12GraphicsView10clearItemsEv@Base 2.6.0
 _ZN6KGantt12GraphicsView11qt_metacallEN11QMetaObject4CallEiPPv@Base 2.6.0
 _ZN6KGantt12GraphicsView11qt_metacastEPKc@Base 2.6.0
 _ZN6KGantt12GraphicsView11resizeEventEP12QResizeEvent@Base 2.6.0
 _ZN6KGantt12GraphicsView11setReadOnlyEb@Base 2.6.0
 _ZN6KGantt12GraphicsView11updateSceneEv@Base 2.6.0
 _ZN6KGantt12GraphicsView12printDiagramEP8QPrinterRKNS_15PrintingContextE@Base 2.8.0
 _ZN6KGantt12GraphicsView12qrealClickedERK11QModelIndex@Base 2.6.0
 _ZN6KGantt12GraphicsView12setRootIndexERK11QModelIndex@Base 2.6.0
 _ZN6KGantt12GraphicsView13addConstraintERK11QModelIndexS3_6QFlagsIN2Qt16KeyboardModifierEE@Base 2.6.0
 _ZN6KGantt12GraphicsView13deleteSubtreeERK11QModelIndex@Base 2.6.0
 _ZN6KGantt12GraphicsView15setItemDelegateEPNS_12ItemDelegateE@Base 2.6.0
 _ZN6KGantt12GraphicsView15updateSceneRectEv@Base 2.6.0
 _ZN6KGantt12GraphicsView16setRowControllerEPNS_21AbstractRowControllerE@Base 2.6.0
 _ZN6KGantt12GraphicsView16staticMetaObjectE@Base 2.6.0
 _ZN6KGantt12GraphicsView17setSelectionModelEP19QItemSelectionModel@Base 2.6.0
 _ZN6KGantt12GraphicsView18setConstraintModelEPNS_15ConstraintModelE@Base 2.6.0
 _ZN6KGantt12GraphicsView23setSummaryHandlingModelEP19QAbstractProxyModel@Base 2.6.0
 _ZN6KGantt12GraphicsView26headerContextMenuRequestedERK6QPoint@Base 2.6.0
 _ZN6KGantt12GraphicsView26setHeaderContextMenuPolicyEN2Qt17ContextMenuPolicyE@Base 2.6.0
 _ZN6KGantt12GraphicsView5printEP8QPainterRK6QRectFbb@Base 2.6.0
 _ZN6KGantt12GraphicsView5printEP8QPainterddRK6QRectFbb@Base 2.6.0
 _ZN6KGantt12GraphicsView5printEP8QPrinterbb@Base 2.6.0
 _ZN6KGantt12GraphicsView5printEP8QPrinterddbb@Base 2.6.0
 _ZN6KGantt12GraphicsView7clickedERK11QModelIndex@Base 2.6.0
 _ZN6KGantt12GraphicsView7enteredERK11QModelIndex@Base 2.6.0
 _ZN6KGantt12GraphicsView7pressedERK11QModelIndex@Base 2.6.0
 _ZN6KGantt12GraphicsView7setGridEPNS_12AbstractGridE@Base 2.6.0
 _ZN6KGantt12GraphicsView8setModelEP18QAbstractItemModel@Base 2.6.0
 _ZN6KGantt12GraphicsView8takeGridEv@Base 2.7.0
 _ZN6KGantt12GraphicsView9activatedERK11QModelIndex@Base 2.6.0
 _ZN6KGantt12GraphicsView9updateRowERK11QModelIndex@Base 2.6.0
 _ZN6KGantt12GraphicsViewC1EP7QWidget@Base 2.6.0
 _ZN6KGantt12GraphicsViewC2EP7QWidget@Base 2.6.0
 _ZN6KGantt12GraphicsViewD0Ev@Base 2.6.0
 _ZN6KGantt12GraphicsViewD1Ev@Base 2.6.0
 _ZN6KGantt12GraphicsViewD2Ev@Base 2.6.0
 _ZN6KGantt12ItemDelegate11qt_metacallEN11QMetaObject4CallEiPPv@Base 2.6.0
 _ZN6KGantt12ItemDelegate11qt_metacastEPKc@Base 2.6.0
 _ZN6KGantt12ItemDelegate13setDefaultPenENS_8ItemTypeERK4QPen@Base 2.6.0
 _ZN6KGantt12ItemDelegate14paintGanttItemEP8QPainterRKNS_20StyleOptionGanttItemERK11QModelIndex@Base 2.6.0
 _ZN6KGantt12ItemDelegate15setDefaultBrushENS_8ItemTypeERK6QBrush@Base 2.6.0
 _ZN6KGantt12ItemDelegate16staticMetaObjectE@Base 2.6.0
 _ZN6KGantt12ItemDelegate19paintConstraintItemEP8QPainterRK24QStyleOptionGraphicsItemRK7QPointFS8_RKNS_10ConstraintE@Base 2.6.0
 _ZN6KGantt12ItemDelegate25paintStartStartConstraintEP8QPainterRK24QStyleOptionGraphicsItemRK7QPointFS8_RKNS_10ConstraintE@Base 2.6.0
 _ZN6KGantt12ItemDelegate26paintFinishStartConstraintEP8QPainterRK24QStyleOptionGraphicsItemRK7QPointFS8_RKNS_10ConstraintE@Base 2.6.0
 _ZN6KGantt12ItemDelegate26paintStartFinishConstraintEP8QPainterRK24QStyleOptionGraphicsItemRK7QPointFS8_RKNS_10ConstraintE@Base 2.6.0
 _ZN6KGantt12ItemDelegate27paintFinishFinishConstraintEP8QPainterRK24QStyleOptionGraphicsItemRK7QPointFS8_RKNS_10ConstraintE@Base 2.6.0
 _ZN6KGantt12ItemDelegateC1EP7QObject@Base 2.6.0
 _ZN6KGantt12ItemDelegateC2EP7QObject@Base 2.6.0
 _ZN6KGantt12ItemDelegateD0Ev@Base 2.6.0
 _ZN6KGantt12ItemDelegateD1Ev@Base 2.6.0
 _ZN6KGantt12ItemDelegateD2Ev@Base 2.6.0
 _ZN6KGantt13GraphicsScene10clearItemsEv@Base 2.6.0
 _ZN6KGantt13GraphicsScene10insertItemERK21QPersistentModelIndexPNS_12GraphicsItemE@Base 2.6.0
 _ZN6KGantt13GraphicsScene10removeItemERK11QModelIndex@Base 2.6.0
 _ZN6KGantt13GraphicsScene11gridChangedEv@Base 2.6.0
 _ZN6KGantt13GraphicsScene11itemClickedERK11QModelIndex@Base 2.6.0
 _ZN6KGantt13GraphicsScene11itemEnteredERK11QModelIndex@Base 2.6.0
 _ZN6KGantt13GraphicsScene11itemPressedERK11QModelIndexP24QGraphicsSceneMouseEvent@Base 2.7.0
 _ZN6KGantt13GraphicsScene11qt_metacallEN11QMetaObject4CallEiPPv@Base 2.6.0
 _ZN6KGantt13GraphicsScene11qt_metacastEPKc@Base 2.6.0
 _ZN6KGantt13GraphicsScene11setReadOnlyEb@Base 2.6.0
 _ZN6KGantt13GraphicsScene11updateItemsEv@Base 2.6.0
 _ZN6KGantt13GraphicsScene12doPrintSceneEP8QPrinterP8QPainterRK6QRectFRKNS_15PrintingContextE@Base 2.8.0
 _ZN6KGantt13GraphicsScene12printDiagramEP8QPrinterRKNS_15PrintingContextE@Base 2.8.0
 _ZN6KGantt13GraphicsScene12qrealClickedERK11QModelIndex@Base 2.6.0
 _ZN6KGantt13GraphicsScene12setRootIndexERK11QModelIndex@Base 2.6.0
 _ZN6KGantt13GraphicsScene13deleteSubtreeERK11QModelIndex@Base 2.6.0
 _ZN6KGantt13GraphicsScene13setDragSourceEPNS_12GraphicsItemE@Base 2.6.0
 _ZN6KGantt13GraphicsScene14drawBackgroundEP8QPainterRK6QRectF@Base 2.6.0
 _ZN6KGantt13GraphicsScene14drawForegroundEP8QPainterRK6QRectF@Base 2.6.0
 _ZN6KGantt13GraphicsScene15setItemDelegateEPNS_12ItemDelegateE@Base 2.6.0
 _ZN6KGantt13GraphicsScene15slotGridChangedEv@Base 2.6.0
 _ZN6KGantt13GraphicsScene16drawLabelsHeaderEP8QPainterRK6QRectFS5_@Base 2.8.0
 _ZN6KGantt13GraphicsScene16setRowControllerEPNS_21AbstractRowControllerE@Base 2.6.0
 _ZN6KGantt13GraphicsScene16staticMetaObjectE@Base 2.6.0
 _ZN6KGantt13GraphicsScene17itemDoubleClickedERK11QModelIndex@Base 2.6.0
 _ZN6KGantt13GraphicsScene17setSelectionModelEP19QItemSelectionModel@Base 2.6.0
 _ZN6KGantt13GraphicsScene18setConstraintModelEPNS_15ConstraintModelE@Base 2.6.0
 _ZN6KGantt13GraphicsScene19slotConstraintAddedERKNS_10ConstraintE@Base 2.6.0
 _ZN6KGantt13GraphicsScene20slotSelectionChangedERK14QItemSelectionS3_@Base 2.7.0
 _ZN6KGantt13GraphicsScene21selectionModelChangedEP18QAbstractItemModel@Base 2.7.0
 _ZN6KGantt13GraphicsScene21slotConstraintRemovedERKNS_10ConstraintE@Base 2.6.0
 _ZN6KGantt13GraphicsScene23setSummaryHandlingModelEP19QAbstractProxyModel@Base 2.6.0
 _ZN6KGantt13GraphicsScene4initEv@Base 2.6.0
 _ZN6KGantt13GraphicsScene5printEP8QPainterRK6QRectFbb@Base 2.6.0
 _ZN6KGantt13GraphicsScene5printEP8QPainterddRK6QRectFbb@Base 2.6.0
 _ZN6KGantt13GraphicsScene5printEP8QPrinterbb@Base 2.6.0
 _ZN6KGantt13GraphicsScene5printEP8QPrinterddbb@Base 2.6.0
 _ZN6KGantt13GraphicsScene7clickedERK11QModelIndex@Base 2.6.0
 _ZN6KGantt13GraphicsScene7doPrintEP8QPainterRK6QRectFddP8QPrinterbb@Base 2.6.0
 _ZN6KGantt13GraphicsScene7enteredERK11QModelIndex@Base 2.6.0
 _ZN6KGantt13GraphicsScene7pressedERK11QModelIndex@Base 2.6.0
 _ZN6KGantt13GraphicsScene7setGridEPNS_12AbstractGridE@Base 2.6.0
 _ZN6KGantt13GraphicsScene8setModelEP18QAbstractItemModel@Base 2.6.0
 _ZN6KGantt13GraphicsScene8takeGridEv@Base 2.8.0
 _ZN6KGantt13GraphicsScene9dataIndexERK11QModelIndex@Base 2.6.0
 _ZN6KGantt13GraphicsScene9helpEventEP23QGraphicsSceneHelpEvent@Base 2.6.0
 _ZN6KGantt13GraphicsScene9mainIndexERK11QModelIndex@Base 2.6.0
 _ZN6KGantt13GraphicsScene9updateRowERK11QModelIndex@Base 2.6.0
 _ZN6KGantt13GraphicsSceneC1EP7QObject@Base 2.6.0
 _ZN6KGantt13GraphicsSceneC2EP7QObject@Base 2.6.0
 _ZN6KGantt13GraphicsSceneD0Ev@Base 2.6.0
 _ZN6KGantt13GraphicsSceneD1Ev@Base 2.6.0
 _ZN6KGantt13GraphicsSceneD2Ev@Base 2.6.0
 _ZN6KGantt15ConstraintModel11qt_metacallEN11QMetaObject4CallEiPPv@Base 2.6.0
 _ZN6KGantt15ConstraintModel11qt_metacastEPKc@Base 2.6.0
 _ZN6KGantt15ConstraintModel13addConstraintERKNS_10ConstraintE@Base 2.6.0
 _ZN6KGantt15ConstraintModel15constraintAddedERKNS_10ConstraintE@Base 2.6.0
 _ZN6KGantt15ConstraintModel16removeConstraintERKNS_10ConstraintE@Base 2.6.0
 _ZN6KGantt15ConstraintModel16staticMetaObjectE@Base 2.6.0
 _ZN6KGantt15ConstraintModel17constraintRemovedERKNS_10ConstraintE@Base 2.6.0
 _ZN6KGantt15ConstraintModel4initEv@Base 2.6.0
 _ZN6KGantt15ConstraintModel5clearEv@Base 2.6.0
 _ZN6KGantt15ConstraintModel7cleanupEv@Base 2.6.0
 _ZN6KGantt15ConstraintModelC1EP7QObject@Base 2.6.0
 _ZN6KGantt15ConstraintModelC2EP7QObject@Base 2.6.0
 _ZN6KGantt15ConstraintModelD0Ev@Base 2.6.0
 _ZN6KGantt15ConstraintModelD1Ev@Base 2.6.0
 _ZN6KGantt15ConstraintModelD2Ev@Base 2.6.0
 _ZN6KGantt15ConstraintProxy11qt_metacallEN11QMetaObject4CallEiPPv@Base 2.6.0
 _ZN6KGantt15ConstraintProxy11qt_metacastEPKc@Base 2.6.0
 _ZN6KGantt15ConstraintProxy13setProxyModelEP19QAbstractProxyModel@Base 2.6.0
 _ZN6KGantt15ConstraintProxy14copyFromSourceEv@Base 2.6.0
 _ZN6KGantt15ConstraintProxy14setSourceModelEPNS_15ConstraintModelE@Base 2.6.0
 _ZN6KGantt15ConstraintProxy16staticMetaObjectE@Base 2.6.0
 _ZN6KGantt15ConstraintProxy17slotLayoutChangedEv@Base 2.6.0
 _ZN6KGantt15ConstraintProxy19setDestinationModelEPNS_15ConstraintModelE@Base 2.6.0
 _ZN6KGantt15ConstraintProxy25slotSourceConstraintAddedERKNS_10ConstraintE@Base 2.6.0
 _ZN6KGantt15ConstraintProxy27slotSourceConstraintRemovedERKNS_10ConstraintE@Base 2.6.0
 _ZN6KGantt15ConstraintProxy30slotDestinationConstraintAddedERKNS_10ConstraintE@Base 2.6.0
 _ZN6KGantt15ConstraintProxy32slotDestinationConstraintRemovedERKNS_10ConstraintE@Base 2.6.0
 _ZN6KGantt15ConstraintProxyC1EP7QObject@Base 2.6.0
 _ZN6KGantt15ConstraintProxyC2EP7QObject@Base 2.6.0
 _ZN6KGantt15ConstraintProxyD0Ev@Base 2.6.0
 _ZN6KGantt15ConstraintProxyD1Ev@Base 2.6.0
 _ZN6KGantt15ConstraintProxyD2Ev@Base 2.6.0
 _ZN6KGantt15PrintingContext10setFittingERKNS0_7FittingE@Base 2.8.0
 _ZN6KGantt15PrintingContext12setSceneRectERK6QRectF@Base 2.8.0
 _ZN6KGantt15PrintingContext16setDrawRowLabelsEb@Base 2.8.0
 _ZN6KGantt15PrintingContext19setDrawColumnLabelsEb@Base 2.8.0
 _ZN6KGantt15PrintingContext6setTopEd@Base 2.8.0
 _ZN6KGantt15PrintingContext7setLeftEd@Base 2.8.0
 _ZN6KGantt15PrintingContext8setRightEd@Base 2.8.0
 _ZN6KGantt15PrintingContext9setBottomEd@Base 2.8.0
 _ZN6KGantt15PrintingContextC1ERKS0_@Base 2.8.0
 _ZN6KGantt15PrintingContextC1Ev@Base 2.8.0
 _ZN6KGantt15PrintingContextC2ERKS0_@Base 2.8.0
 _ZN6KGantt15PrintingContextC2Ev@Base 2.8.0
 _ZN6KGantt15PrintingContextD1Ev@Base 2.8.0
 _ZN6KGantt15PrintingContextD2Ev@Base 2.8.0
 _ZN6KGantt15PrintingContextaSERKS0_@Base 2.8.0
 _ZN6KGantt16DateTimeTimeLine10setOptionsE6QFlagsINS0_6OptionEE@Base 2.7.0
 _ZN6KGantt16DateTimeTimeLine11qt_metacallEN11QMetaObject4CallEiPPv@Base 2.7.0
 _ZN6KGantt16DateTimeTimeLine11qt_metacastEPKc@Base 2.7.0
 _ZN6KGantt16DateTimeTimeLine11setDateTimeERK9QDateTime@Base 2.7.0
 _ZN6KGantt16DateTimeTimeLine11setIntervalEi@Base 2.7.0
 _ZN6KGantt16DateTimeTimeLine16staticMetaObjectE@Base 2.7.0
 _ZN6KGantt16DateTimeTimeLine6setPenERK4QPen@Base 2.7.0
 _ZN6KGantt16DateTimeTimeLine7updatedEv@Base 2.7.0
 _ZN6KGantt16DateTimeTimeLineC1Ev@Base 2.7.0
 _ZN6KGantt16DateTimeTimeLineC2Ev@Base 2.7.0
 _ZN6KGantt16PenStyleComboBox10paintEventEP11QPaintEvent@Base 2.7.0
 _ZN6KGantt16PenStyleComboBox11qt_metacallEN11QMetaObject4CallEiPPv@Base 2.7.0
 _ZN6KGantt16PenStyleComboBox11qt_metacastEPKc@Base 2.7.0
 _ZN6KGantt16PenStyleComboBox15setCurrentStyleEN2Qt8PenStyleE@Base 2.7.0
 _ZN6KGantt16PenStyleComboBox16staticMetaObjectE@Base 2.7.0
 _ZN6KGantt16PenStyleComboBoxC1EP7QWidget@Base 2.7.0
 _ZN6KGantt16PenStyleComboBoxC2EP7QWidget@Base 2.7.0
 _ZN6KGantt20ForwardingProxyModel11qt_metacallEN11QMetaObject4CallEiPPv@Base 2.6.0
 _ZN6KGantt20ForwardingProxyModel11qt_metacastEPKc@Base 2.6.0
 _ZN6KGantt20ForwardingProxyModel12dropMimeDataEPK9QMimeDataN2Qt10DropActionEiiRK11QModelIndex@Base 2.6.0
 _ZN6KGantt20ForwardingProxyModel14setSourceModelEP18QAbstractItemModel@Base 2.6.0
 _ZN6KGantt20ForwardingProxyModel16sourceModelResetEv@Base 2.6.0
 _ZN6KGantt20ForwardingProxyModel16staticMetaObjectE@Base 2.6.0
 _ZN6KGantt20ForwardingProxyModel17sourceDataChangedERK11QModelIndexS3_@Base 2.6.0
 _ZN6KGantt20ForwardingProxyModel17sourceRowsRemovedERK11QModelIndexii@Base 2.6.0
 _ZN6KGantt20ForwardingProxyModel18sourceRowsInsertedERK11QModelIndexii@Base 2.6.0
 _ZN6KGantt20ForwardingProxyModel19sourceLayoutChangedEv@Base 2.6.0
 _ZN6KGantt20ForwardingProxyModel20sourceColumnsRemovedERK11QModelIndexii@Base 2.6.0
 _ZN6KGantt20ForwardingProxyModel21sourceColumnsInsertedERK11QModelIndexii@Base 2.6.0
 _ZN6KGantt20ForwardingProxyModel25sourceModelAboutToBeResetEv@Base 2.6.0
 _ZN6KGantt20ForwardingProxyModel26sourceRowsAboutToBeRemovedERK11QModelIndexii@Base 2.6.0
 _ZN6KGantt20ForwardingProxyModel27sourceRowsAboutToBeInsertedERK11QModelIndexii@Base 2.6.0
 _ZN6KGantt20ForwardingProxyModel28sourceLayoutAboutToBeChangedEv@Base 2.6.0
 _ZN6KGantt20ForwardingProxyModel29sourceColumnsAboutToBeRemovedERK11QModelIndexii@Base 2.6.0
 _ZN6KGantt20ForwardingProxyModel30sourceColumnsAboutToBeInsertedERK11QModelIndexii@Base 2.6.0
 _ZN6KGantt20ForwardingProxyModel7setDataERK11QModelIndexRK8QVarianti@Base 2.6.0
 _ZN6KGantt20ForwardingProxyModelC1EP7QObject@Base 2.6.0
 _ZN6KGantt20ForwardingProxyModelC2EP7QObject@Base 2.6.0
 _ZN6KGantt20ForwardingProxyModelD0Ev@Base 2.6.0
 _ZN6KGantt20ForwardingProxyModelD1Ev@Base 2.6.0
 _ZN6KGantt20ForwardingProxyModelD2Ev@Base 2.6.0
 _ZN6KGantt20StyleOptionGanttItemC1ERKS0_@Base 2.6.0
 _ZN6KGantt20StyleOptionGanttItemC1Ev@Base 2.6.0
 _ZN6KGantt20StyleOptionGanttItemC2ERKS0_@Base 2.6.0
 _ZN6KGantt20StyleOptionGanttItemC2Ev@Base 2.6.0
 _ZN6KGantt20StyleOptionGanttItemaSERKS0_@Base 2.6.0
 _ZN6KGantt21AbstractRowControllerC1Ev@Base 2.6.0
 _ZN6KGantt21AbstractRowControllerC2Ev@Base 2.6.0
 _ZN6KGantt21AbstractRowControllerD0Ev@Base 2.6.0
 _ZN6KGantt21AbstractRowControllerD1Ev@Base 2.6.0
 _ZN6KGantt21AbstractRowControllerD2Ev@Base 2.6.0
 _ZN6KGantt21ListViewRowControllerC1EP9QListViewP19QAbstractProxyModel@Base 2.6.0
 _ZN6KGantt21ListViewRowControllerC2EP9QListViewP19QAbstractProxyModel@Base 2.6.0
 _ZN6KGantt21ListViewRowControllerD0Ev@Base 2.6.0
 _ZN6KGantt21ListViewRowControllerD1Ev@Base 2.6.0
 _ZN6KGantt21ListViewRowControllerD2Ev@Base 2.6.0
 _ZN6KGantt21TreeViewRowControllerC1EP9QTreeViewP19QAbstractProxyModel@Base 2.6.0
 _ZN6KGantt21TreeViewRowControllerC2EP9QTreeViewP19QAbstractProxyModel@Base 2.6.0
 _ZN6KGantt21TreeViewRowControllerD0Ev@Base 2.6.0
 _ZN6KGantt21TreeViewRowControllerD1Ev@Base 2.6.0
 _ZN6KGantt21TreeViewRowControllerD2Ev@Base 2.6.0
 _ZN6KGantt22ConstraintGraphicsItem10updateItemERK7QPointFS3_@Base 2.6.0
 _ZN6KGantt22ConstraintGraphicsItem5paintEP8QPainterPK24QStyleOptionGraphicsItemP7QWidget@Base 2.6.0
 _ZN6KGantt22ConstraintGraphicsItem6setEndERK7QPointF@Base 2.6.0
 _ZN6KGantt22ConstraintGraphicsItem8setStartERK7QPointF@Base 2.6.0
 _ZN6KGantt22ConstraintGraphicsItemC1ERKNS_10ConstraintEP13QGraphicsItemPNS_13GraphicsSceneE@Base 2.6.0
 _ZN6KGantt22ConstraintGraphicsItemC2ERKNS_10ConstraintEP13QGraphicsItemPNS_13GraphicsSceneE@Base 2.6.0
 _ZN6KGantt22ConstraintGraphicsItemD0Ev@Base 2.6.0
 _ZN6KGantt22ConstraintGraphicsItemD1Ev@Base 2.6.0
 _ZN6KGantt22ConstraintGraphicsItemD2Ev@Base 2.6.0
 _ZN6KGantt22DateTimeScaleFormatterC1ENS0_5RangeERK7QString6QFlagsIN2Qt13AlignmentFlagEE@Base 2.6.0
 _ZN6KGantt22DateTimeScaleFormatterC1ENS0_5RangeERK7QStringS4_6QFlagsIN2Qt13AlignmentFlagEE@Base 2.6.0
 _ZN6KGantt22DateTimeScaleFormatterC1ERKS0_@Base 2.6.0
 _ZN6KGantt22DateTimeScaleFormatterC2ENS0_5RangeERK7QString6QFlagsIN2Qt13AlignmentFlagEE@Base 2.6.0
 _ZN6KGantt22DateTimeScaleFormatterC2ENS0_5RangeERK7QStringS4_6QFlagsIN2Qt13AlignmentFlagEE@Base 2.6.0
 _ZN6KGantt22DateTimeScaleFormatterC2ERKS0_@Base 2.6.0
 _ZN6KGantt22DateTimeScaleFormatterD0Ev@Base 2.6.0
 _ZN6KGantt22DateTimeScaleFormatterD1Ev@Base 2.6.0
 _ZN6KGantt22DateTimeScaleFormatterD2Ev@Base 2.6.0
 _ZN6KGantt22DateTimeScaleFormatteraSERKS0_@Base 2.6.0
 _ZN6KGantt25SummaryHandlingProxyModel11qt_metacallEN11QMetaObject4CallEiPPv@Base 2.6.0
 _ZN6KGantt25SummaryHandlingProxyModel11qt_metacastEPKc@Base 2.6.0
 _ZN6KGantt25SummaryHandlingProxyModel14setSourceModelEP18QAbstractItemModel@Base 2.6.0
 _ZN6KGantt25SummaryHandlingProxyModel16sourceModelResetEv@Base 2.6.0
 _ZN6KGantt25SummaryHandlingProxyModel16staticMetaObjectE@Base 2.6.0
 _ZN6KGantt25SummaryHandlingProxyModel17sourceDataChangedERK11QModelIndexS3_@Base 2.6.0
 _ZN6KGantt25SummaryHandlingProxyModel19sourceLayoutChangedEv@Base 2.6.0
 _ZN6KGantt25SummaryHandlingProxyModel26sourceRowsAboutToBeRemovedERK11QModelIndexii@Base 2.6.0
 _ZN6KGantt25SummaryHandlingProxyModel27sourceRowsAboutToBeInsertedERK11QModelIndexii@Base 2.6.0
 _ZN6KGantt25SummaryHandlingProxyModel29sourceColumnsAboutToBeRemovedERK11QModelIndexii@Base 2.6.0
 _ZN6KGantt25SummaryHandlingProxyModel30sourceColumnsAboutToBeInsertedERK11QModelIndexii@Base 2.6.0
 _ZN6KGantt25SummaryHandlingProxyModel4initEv@Base 2.6.0
 _ZN6KGantt25SummaryHandlingProxyModel7setDataERK11QModelIndexRK8QVarianti@Base 2.6.0
 _ZN6KGantt25SummaryHandlingProxyModelC1EP7QObject@Base 2.6.0
 _ZN6KGantt25SummaryHandlingProxyModelC2EP7QObject@Base 2.6.0
 _ZN6KGantt25SummaryHandlingProxyModelD0Ev@Base 2.6.0
 _ZN6KGantt25SummaryHandlingProxyModelD1Ev@Base 2.6.0
 _ZN6KGantt25SummaryHandlingProxyModelD2Ev@Base 2.6.0
 _ZN6KGantt4View11collapseAllE11QModelIndex@Base 2.6.0
 _ZN6KGantt4View11qt_metacallEN11QMetaObject4CallEiPPv@Base 2.6.0
 _ZN6KGantt4View11qt_metacastEPKc@Base 2.6.0
 _ZN6KGantt4View11resizeEventEP12QResizeEvent@Base 2.6.0
 _ZN6KGantt4View11setLeftViewEP17QAbstractItemView@Base 2.6.0
 _ZN6KGantt4View12graphicsViewEv@Base 2.6.0
 _ZN6KGantt4View12printDiagramEP8QPrinterRKNS_15PrintingContextE@Base 2.8.0
 _ZN6KGantt4View12setRootIndexERK11QModelIndex@Base 2.6.0
 _ZN6KGantt4View13ensureVisibleERK11QModelIndex@Base 2.6.0
 _ZN6KGantt4View13rowControllerEv@Base 2.6.0
 _ZN6KGantt4View15ganttProxyModelEv@Base 2.6.0
 _ZN6KGantt4View15setGraphicsViewEPNS_12GraphicsViewE@Base 2.6.0
 _ZN6KGantt4View15setItemDelegateEPNS_12ItemDelegateE@Base 2.6.0
 _ZN6KGantt4View16setRowControllerEPNS_21AbstractRowControllerE@Base 2.6.0
 _ZN6KGantt4View16staticMetaObjectE@Base 2.6.0
 _ZN6KGantt4View17setSelectionModelEP19QItemSelectionModel@Base 2.6.0
 _ZN6KGantt4View18setConstraintModelEPNS_15ConstraintModelE@Base 2.6.0
 _ZN6KGantt4View5printEP8QPainterRK6QRectFbb@Base 2.6.0
 _ZN6KGantt4View5printEP8QPainterddRK6QRectFbb@Base 2.6.0
 _ZN6KGantt4View5printEP8QPrinterbb@Base 2.6.0
 _ZN6KGantt4View5printEP8QPrinterddbb@Base 2.6.0
 _ZN6KGantt4View7setGridEPNS_12AbstractGridE@Base 2.6.0
 _ZN6KGantt4View8leftViewEv@Base 2.6.0
 _ZN6KGantt4View8setModelEP18QAbstractItemModel@Base 2.6.0
 _ZN6KGantt4View8splitterEv@Base 2.6.0
 _ZN6KGantt4View9expandAllE11QModelIndex@Base 2.6.0
 _ZN6KGantt4ViewC1EP7QWidget@Base 2.6.0
 _ZN6KGantt4ViewC2EP7QWidget@Base 2.6.0
 _ZN6KGantt4ViewD0Ev@Base 2.6.0
 _ZN6KGantt4ViewD1Ev@Base 2.6.0
 _ZN6KGantt4ViewD2Ev@Base 2.6.0
 _ZN6KGantt6Legend10paintEventEP11QPaintEvent@Base 2.6.0
 _ZN6KGantt6Legend11qt_metacallEN11QMetaObject4CallEiPPv@Base 2.6.0
 _ZN6KGantt6Legend11qt_metacastEPKc@Base 2.6.0
 _ZN6KGantt6Legend16modelDataChangedEv@Base 2.6.0
 _ZN6KGantt6Legend16staticMetaObjectE@Base 2.6.0
 _ZN6KGantt6Legend8setModelEP18QAbstractItemModel@Base 2.6.0
 _ZN6KGantt6LegendC1EP7QWidget@Base 2.6.0
 _ZN6KGantt6LegendC2EP7QWidget@Base 2.6.0
 _ZN6KGantt6LegendD0Ev@Base 2.6.0
 _ZN6KGantt6LegendD1Ev@Base 2.6.0
 _ZN6KGantt6LegendD2Ev@Base 2.6.0
 _ZNK4KDAB8UnitTest12TestRegistry3runEPKc@Base 2.6.0
 _ZNK4KDAB8UnitTest12TestRegistry3runEv@Base 2.6.0
 _ZNK4KDAB8UnitTest6Runner3runEPKc@Base 2.6.0
 _ZNK6KGantt10Constraint10startIndexEv@Base 2.6.0
 _ZNK6KGantt10Constraint12relationTypeEv@Base 2.6.0
 _ZNK6KGantt10Constraint14compareIndexesERKS0_@Base 2.6.0
 _ZNK6KGantt10Constraint4dataEi@Base 2.6.0
 _ZNK6KGantt10Constraint4hashEv@Base 2.6.0
 _ZNK6KGantt10Constraint4typeEv@Base 2.6.0
 _ZNK6KGantt10Constraint5debugE6QDebug@Base 2.6.0
 _ZNK6KGantt10Constraint7dataMapEv@Base 2.6.0
 _ZNK6KGantt10Constraint8endIndexEv@Base 2.6.0
 _ZNK6KGantt10ConstrainteqERKS0_@Base 2.6.0
 _ZNK6KGantt10ProxyModel10metaObjectEv@Base 2.6.0
 _ZNK6KGantt10ProxyModel11columnCountERK11QModelIndex@Base 2.6.0
 _ZNK6KGantt10ProxyModel11mapToSourceERK11QModelIndex@Base 2.6.0
 _ZNK6KGantt10ProxyModel13mapFromSourceERK11QModelIndex@Base 2.6.0
 _ZNK6KGantt10ProxyModel4dataERK11QModelIndexi@Base 2.6.0
 _ZNK6KGantt10ProxyModel4roleEi@Base 2.6.0
 _ZNK6KGantt10ProxyModel6columnEi@Base 2.6.0
 _ZNK6KGantt10ProxyModel8rowCountERK11QModelIndex@Base 2.6.0
 _ZNK6KGantt12AbstractGrid10mapToChartERK8QVariant@Base 2.6.0
 _ZNK6KGantt12AbstractGrid10metaObjectEv@Base 2.6.0
 _ZNK6KGantt12AbstractGrid12mapFromChartEd@Base 2.6.0
 _ZNK6KGantt12AbstractGrid21isSatisfiedConstraintERKNS_10ConstraintE@Base 2.6.0
 _ZNK6KGantt12AbstractGrid5modelEv@Base 2.6.0
 _ZNK6KGantt12AbstractGrid9rootIndexEv@Base 2.6.0
 _ZNK6KGantt12DateTimeGrid10mapToChartERK11QModelIndex@Base 2.6.0
 _ZNK6KGantt12DateTimeGrid10mapToChartERK8QVariant@Base 2.6.0
 _ZNK6KGantt12DateTimeGrid10metaObjectEv@Base 2.6.0
 _ZNK6KGantt12DateTimeGrid11computeRectERK9QDateTimeS3_RK6QRectF@Base 2.6.0
 _ZNK6KGantt12DateTimeGrid12mapFromChartERKNS_4SpanERK11QModelIndexRK5QListINS_10ConstraintEE@Base 2.6.0
 _ZNK6KGantt12DateTimeGrid12mapFromChartEd@Base 2.6.0
 _ZNK6KGantt12DateTimeGrid13dateTimeRangeERK6QRectF@Base 2.6.0
 _ZNK6KGantt12DateTimeGrid13freeDaysBrushEv@Base 2.6.0
 _ZNK6KGantt12DateTimeGrid13mapToDateTimeEd@Base 2.6.0
 _ZNK6KGantt12DateTimeGrid13rowSeparatorsEv@Base 2.6.0
 _ZNK6KGantt12DateTimeGrid13startDateTimeEv@Base 2.6.0
 _ZNK6KGantt12DateTimeGrid15mapFromDateTimeERK9QDateTime@Base 2.6.0
 _ZNK6KGantt12DateTimeGrid18noInformationBrushEv@Base 2.6.0
 _ZNK6KGantt12DateTimeGrid18sectionHandleAtPosEiiRK5QRect@Base 2.8.0
 _ZNK6KGantt12DateTimeGrid21userDefinedLowerScaleEv@Base 2.6.0
 _ZNK6KGantt12DateTimeGrid21userDefinedUpperScaleEv@Base 2.6.0
 _ZNK6KGantt12DateTimeGrid5scaleEv@Base 2.6.0
 _ZNK6KGantt12DateTimeGrid8dayWidthEv@Base 2.6.0
 _ZNK6KGantt12DateTimeGrid8freeDaysEv@Base 2.6.0
 _ZNK6KGantt12DateTimeGrid8timeLineEv@Base 2.7.0
 _ZNK6KGantt12DateTimeGrid9weekStartEv@Base 2.6.0
 _ZNK6KGantt12GraphicsItem10isEditableEv@Base 2.7.0
 _ZNK6KGantt12GraphicsItem12boundingRectEv@Base 2.7.0
 _ZNK6KGantt12GraphicsItem12endConnectorEi@Base 2.7.0
 _ZNK6KGantt12GraphicsItem12ganttToolTipEv@Base 2.7.0
 _ZNK6KGantt12GraphicsItem14getStyleOptionEv@Base 2.7.0
 _ZNK6KGantt12GraphicsItem14startConnectorEi@Base 2.7.0
 _ZNK6KGantt12GraphicsItem4typeEv@Base 2.7.0
 _ZNK6KGantt12GraphicsItem5sceneEv@Base 2.7.0
 _ZNK6KGantt12GraphicsView10isReadOnlyEv@Base 2.6.0
 _ZNK6KGantt12GraphicsView10metaObjectEv@Base 2.6.0
 _ZNK6KGantt12GraphicsView12itemDelegateEv@Base 2.6.0
 _ZNK6KGantt12GraphicsView13rowControllerEv@Base 2.6.0
 _ZNK6KGantt12GraphicsView14selectionModelEv@Base 2.6.0
 _ZNK6KGantt12GraphicsView15constraintModelEv@Base 2.6.0
 _ZNK6KGantt12GraphicsView20summaryHandlingModelEv@Base 2.6.0
 _ZNK6KGantt12GraphicsView23headerContextMenuPolicyEv@Base 2.6.0
 _ZNK6KGantt12GraphicsView4gridEv@Base 2.6.0
 _ZNK6KGantt12GraphicsView5modelEv@Base 2.6.0
 _ZNK6KGantt12GraphicsView7indexAtERK6QPoint@Base 2.6.0
 _ZNK6KGantt12GraphicsView9rootIndexEv@Base 2.6.0
 _ZNK6KGantt12ItemDelegate10defaultPenENS_8ItemTypeE@Base 2.6.0
 _ZNK6KGantt12ItemDelegate10metaObjectEv@Base 2.6.0
 _ZNK6KGantt12ItemDelegate12defaultBrushENS_8ItemTypeE@Base 2.6.0
 _ZNK6KGantt12ItemDelegate14startStartLineERK7QPointFS3_@Base 2.6.0
 _ZNK6KGantt12ItemDelegate15finishStartLineERK7QPointFS3_@Base 2.6.0
 _ZNK6KGantt12ItemDelegate15startFinishLineERK7QPointFS3_@Base 2.6.0
 _ZNK6KGantt12ItemDelegate15startStartArrowERK7QPointFS3_@Base 2.6.0
 _ZNK6KGantt12ItemDelegate16finishFinishLineERK7QPointFS3_@Base 2.6.0
 _ZNK6KGantt12ItemDelegate16finishStartArrowERK7QPointFS3_@Base 2.6.0
 _ZNK6KGantt12ItemDelegate16itemBoundingSpanERKNS_20StyleOptionGanttItemERK11QModelIndex@Base 2.6.0
 _ZNK6KGantt12ItemDelegate16startFinishArrowERK7QPointFS3_@Base 2.6.0
 _ZNK6KGantt12ItemDelegate17finishFinishArrowERK7QPointFS3_@Base 2.6.0
 _ZNK6KGantt12ItemDelegate19interactionStateForERK7QPointFRKNS_20StyleOptionGanttItemERK11QModelIndex@Base 2.6.0
 _ZNK6KGantt12ItemDelegate22constraintBoundingRectERK7QPointFS3_RKNS_10ConstraintE@Base 2.6.0
 _ZNK6KGantt12ItemDelegate7toolTipERK11QModelIndex@Base 2.6.0
 _ZNK6KGantt13GraphicsScene10createItemENS_8ItemTypeE@Base 2.6.0
 _ZNK6KGantt13GraphicsScene10dragSourceEv@Base 2.6.0
 _ZNK6KGantt13GraphicsScene10isReadOnlyEv@Base 2.6.0
 _ZNK6KGantt13GraphicsScene10metaObjectEv@Base 2.6.0
 _ZNK6KGantt13GraphicsScene12itemDelegateEv@Base 2.6.0
 _ZNK6KGantt13GraphicsScene13rowControllerEv@Base 2.6.0
 _ZNK6KGantt13GraphicsScene14selectionModelEv@Base 2.6.0
 _ZNK6KGantt13GraphicsScene15constraintModelEv@Base 2.6.0
 _ZNK6KGantt13GraphicsScene18findConstraintItemERKNS_10ConstraintE@Base 2.6.0
 _ZNK6KGantt13GraphicsScene20summaryHandlingModelEv@Base 2.6.0
 _ZNK6KGantt13GraphicsScene4gridEv@Base 2.6.0
 _ZNK6KGantt13GraphicsScene5modelEv@Base 2.6.0
 _ZNK6KGantt13GraphicsScene7getGridEv@Base 2.7.0
 _ZNK6KGantt13GraphicsScene8findItemERK11QModelIndex@Base 2.6.0
 _ZNK6KGantt13GraphicsScene8findItemERK21QPersistentModelIndex@Base 2.6.0
 _ZNK6KGantt13GraphicsScene9rootIndexEv@Base 2.6.0
 _ZNK6KGantt15ConstraintModel10metaObjectEv@Base 2.6.0
 _ZNK6KGantt15ConstraintModel11constraintsEv@Base 2.6.0
 _ZNK6KGantt15ConstraintModel13hasConstraintERKNS_10ConstraintE@Base 2.6.0
 _ZNK6KGantt15ConstraintModel19constraintsForIndexERK11QModelIndex@Base 2.6.0
 _ZNK6KGantt15ConstraintProxy10metaObjectEv@Base 2.6.0
 _ZNK6KGantt15ConstraintProxy10proxyModelEv@Base 2.6.0
 _ZNK6KGantt15ConstraintProxy11sourceModelEv@Base 2.6.0
 _ZNK6KGantt15ConstraintProxy16destinationModelEv@Base 2.6.0
 _ZNK6KGantt15PrintingContext13drawRowLabelsEv@Base 2.8.0
 _ZNK6KGantt15PrintingContext16drawColumnLabelsEv@Base 2.8.0
 _ZNK6KGantt15PrintingContext3topEv@Base 2.8.0
 _ZNK6KGantt15PrintingContext4leftEv@Base 2.8.0
 _ZNK6KGantt15PrintingContext5rightEv@Base 2.8.0
 _ZNK6KGantt15PrintingContext6bottomEv@Base 2.8.0
 _ZNK6KGantt15PrintingContext7fittingEv@Base 2.8.0
 _ZNK6KGantt15PrintingContext9sceneRectEv@Base 2.8.0
 _ZNK6KGantt16DateTimeTimeLine10metaObjectEv@Base 2.7.0
 _ZNK6KGantt16DateTimeTimeLine3penEv@Base 2.7.0
 _ZNK6KGantt16DateTimeTimeLine7optionsEv@Base 2.7.0
 _ZNK6KGantt16DateTimeTimeLine8dateTimeEv@Base 2.7.0
 _ZNK6KGantt16DateTimeTimeLine8intervalEv@Base 2.7.0
 _ZNK6KGantt16DateTimeTimeLine9customPenEv@Base 2.7.0
 _ZNK6KGantt16PenStyleComboBox10metaObjectEv@Base 2.7.0
 _ZNK6KGantt16PenStyleComboBox12currentStyleEv@Base 2.7.0
 _ZNK6KGantt20ForwardingProxyModel10metaObjectEv@Base 2.6.0
 _ZNK6KGantt20ForwardingProxyModel11columnCountERK11QModelIndex@Base 2.6.0
 _ZNK6KGantt20ForwardingProxyModel11mapToSourceERK11QModelIndex@Base 2.6.0
 _ZNK6KGantt20ForwardingProxyModel13mapFromSourceERK11QModelIndex@Base 2.6.0
 _ZNK6KGantt20ForwardingProxyModel20supportedDropActionsEv@Base 2.6.0
 _ZNK6KGantt20ForwardingProxyModel5indexEiiRK11QModelIndex@Base 2.6.0
 _ZNK6KGantt20ForwardingProxyModel6parentERK11QModelIndex@Base 2.6.0
 _ZNK6KGantt20ForwardingProxyModel8mimeDataERK5QListI11QModelIndexE@Base 2.6.0
 _ZNK6KGantt20ForwardingProxyModel8rowCountERK11QModelIndex@Base 2.6.0
 _ZNK6KGantt20ForwardingProxyModel9mimeTypesEv@Base 2.6.0
 _ZNK6KGantt21ListViewRowController10indexAboveERK11QModelIndex@Base 2.6.0
 _ZNK6KGantt21ListViewRowController10indexBelowERK11QModelIndex@Base 2.6.0
 _ZNK6KGantt21ListViewRowController11rowGeometryERK11QModelIndex@Base 2.6.0
 _ZNK6KGantt21ListViewRowController11totalHeightEv@Base 2.6.0
 _ZNK6KGantt21ListViewRowController12headerHeightEv@Base 2.6.0
 _ZNK6KGantt21ListViewRowController12isRowVisibleERK11QModelIndex@Base 2.6.0
 _ZNK6KGantt21ListViewRowController13isRowExpandedERK11QModelIndex@Base 2.6.0
 _ZNK6KGantt21ListViewRowController17maximumItemHeightEv@Base 2.6.0
 _ZNK6KGantt21ListViewRowController7indexAtEi@Base 2.6.0
 _ZNK6KGantt21TreeViewRowController10indexAboveERK11QModelIndex@Base 2.6.0
 _ZNK6KGantt21TreeViewRowController10indexBelowERK11QModelIndex@Base 2.6.0
 _ZNK6KGantt21TreeViewRowController11rowGeometryERK11QModelIndex@Base 2.6.0
 _ZNK6KGantt21TreeViewRowController11totalHeightEv@Base 2.6.0
 _ZNK6KGantt21TreeViewRowController12headerHeightEv@Base 2.6.0
 _ZNK6KGantt21TreeViewRowController12isRowVisibleERK11QModelIndex@Base 2.6.0
 _ZNK6KGantt21TreeViewRowController13isRowExpandedERK11QModelIndex@Base 2.6.0
 _ZNK6KGantt21TreeViewRowController17maximumItemHeightEv@Base 2.6.0
 _ZNK6KGantt21TreeViewRowController7indexAtEi@Base 2.6.0
 _ZNK6KGantt22ConstraintGraphicsItem12boundingRectEv@Base 2.6.0
 _ZNK6KGantt22ConstraintGraphicsItem12ganttToolTipEv@Base 2.6.0
 _ZNK6KGantt22ConstraintGraphicsItem15proxyConstraintEv@Base 2.6.0
 _ZNK6KGantt22ConstraintGraphicsItem4typeEv@Base 2.6.0
 _ZNK6KGantt22ConstraintGraphicsItem5sceneEv@Base 2.6.0
 _ZNK6KGantt22DateTimeScaleFormatter14nextRangeBeginERK9QDateTime@Base 2.6.0
 _ZNK6KGantt22DateTimeScaleFormatter17currentRangeBeginERK9QDateTime@Base 2.6.0
 _ZNK6KGantt22DateTimeScaleFormatter4textERK9QDateTime@Base 2.6.0
 _ZNK6KGantt22DateTimeScaleFormatter5rangeEv@Base 2.6.0
 _ZNK6KGantt22DateTimeScaleFormatter6formatERK9QDateTime@Base 2.6.0
 _ZNK6KGantt22DateTimeScaleFormatter6formatEv@Base 2.6.0
 _ZNK6KGantt22DateTimeScaleFormatter9alignmentEv@Base 2.6.0
 _ZNK6KGantt25SummaryHandlingProxyModel10metaObjectEv@Base 2.6.0
 _ZNK6KGantt25SummaryHandlingProxyModel4dataERK11QModelIndexi@Base 2.6.0
 _ZNK6KGantt25SummaryHandlingProxyModel5flagsERK11QModelIndex@Base 2.6.0
 _ZNK6KGantt4View10metaObjectEv@Base 2.6.0
 _ZNK6KGantt4View12graphicsViewEv@Base 2.6.0
 _ZNK6KGantt4View12itemDelegateEv@Base 2.6.0
 _ZNK6KGantt4View13rowControllerEv@Base 2.6.0
 _ZNK6KGantt4View14selectionModelEv@Base 2.6.0
 _ZNK6KGantt4View15constraintModelEv@Base 2.6.0
 _ZNK6KGantt4View15ganttProxyModelEv@Base 2.6.0
 _ZNK6KGantt4View4gridEv@Base 2.6.0
 _ZNK6KGantt4View5modelEv@Base 2.6.0
 _ZNK6KGantt4View7indexAtERK6QPoint@Base 2.6.0
 _ZNK6KGantt4View8leftViewEv@Base 2.6.0
 _ZNK6KGantt4View8splitterEv@Base 2.6.0
 _ZNK6KGantt4View9rootIndexEv@Base 2.6.0
 _ZNK6KGantt6Legend10metaObjectEv@Base 2.6.0
 _ZNK6KGantt6Legend10visualRectERK11QModelIndex@Base 2.6.0
 _ZNK6KGantt6Legend11measureItemERK11QModelIndexb@Base 2.6.0
 _ZNK6KGantt6Legend14getStyleOptionERK11QModelIndex@Base 2.6.0
 _ZNK6KGantt6Legend15minimumSizeHintEv@Base 2.6.0
 _ZNK6KGantt6Legend7indexAtERK6QPoint@Base 2.6.0
 _ZNK6KGantt6Legend8drawItemEP8QPainterRK11QModelIndexRK6QPoint@Base 2.6.0
 _ZNK6KGantt6Legend8sizeHintEv@Base 2.6.0
 _ZTIN6KGantt10ProxyModelE@Base 2.6.0
 _ZTIN6KGantt12AbstractGridE@Base 2.6.0
 _ZTIN6KGantt12DateTimeGridE@Base 2.6.0
 _ZTIN6KGantt12GraphicsItemE@Base 2.7.0
 _ZTIN6KGantt12GraphicsViewE@Base 2.6.0
 _ZTIN6KGantt12ItemDelegateE@Base 2.6.0
 _ZTIN6KGantt13GraphicsSceneE@Base 2.6.0
 _ZTIN6KGantt15ConstraintModelE@Base 2.6.0
 _ZTIN6KGantt15ConstraintProxyE@Base 2.6.0
 _ZTIN6KGantt16DateTimeTimeLineE@Base 2.7.0
 _ZTIN6KGantt16PenStyleComboBoxE@Base 2.7.0
 _ZTIN6KGantt20ForwardingProxyModelE@Base 2.6.0
 _ZTIN6KGantt21AbstractRowControllerE@Base 2.6.0
 _ZTIN6KGantt21ListViewRowControllerE@Base 2.6.0
 _ZTIN6KGantt21TreeViewRowControllerE@Base 2.6.0
 _ZTIN6KGantt22ConstraintGraphicsItemE@Base 2.6.0
 _ZTIN6KGantt22DateTimeScaleFormatterE@Base 2.6.0
 _ZTIN6KGantt25SummaryHandlingProxyModelE@Base 2.6.0
 _ZTIN6KGantt4ViewE@Base 2.6.0
 _ZTIN6KGantt6LegendE@Base 2.6.0
 _ZTSN6KGantt10ProxyModelE@Base 2.6.0
 _ZTSN6KGantt12AbstractGridE@Base 2.6.0
 _ZTSN6KGantt12DateTimeGridE@Base 2.6.0
 _ZTSN6KGantt12GraphicsItemE@Base 2.7.0
 _ZTSN6KGantt12GraphicsViewE@Base 2.6.0
 _ZTSN6KGantt12ItemDelegateE@Base 2.6.0
 _ZTSN6KGantt13GraphicsSceneE@Base 2.6.0
 _ZTSN6KGantt15ConstraintModelE@Base 2.6.0
 _ZTSN6KGantt15ConstraintProxyE@Base 2.6.0
 _ZTSN6KGantt16DateTimeTimeLineE@Base 2.7.0
 _ZTSN6KGantt16PenStyleComboBoxE@Base 2.7.0
 _ZTSN6KGantt20ForwardingProxyModelE@Base 2.6.0
 _ZTSN6KGantt21AbstractRowControllerE@Base 2.6.0
 _ZTSN6KGantt21ListViewRowControllerE@Base 2.6.0
 _ZTSN6KGantt21TreeViewRowControllerE@Base 2.6.0
 _ZTSN6KGantt22ConstraintGraphicsItemE@Base 2.6.0
 _ZTSN6KGantt22DateTimeScaleFormatterE@Base 2.6.0
 _ZTSN6KGantt25SummaryHandlingProxyModelE@Base 2.6.0
 _ZTSN6KGantt4ViewE@Base 2.6.0
 _ZTSN6KGantt6LegendE@Base 2.6.0
 _ZTVN6KGantt10ProxyModelE@Base 2.6.0
 _ZTVN6KGantt12AbstractGridE@Base 2.6.0
 _ZTVN6KGantt12DateTimeGridE@Base 2.6.0
 _ZTVN6KGantt12GraphicsItemE@Base 2.7.0
 _ZTVN6KGantt12GraphicsViewE@Base 2.6.0
 _ZTVN6KGantt12ItemDelegateE@Base 2.6.0
 _ZTVN6KGantt13GraphicsSceneE@Base 2.6.0
 _ZTVN6KGantt15ConstraintModelE@Base 2.6.0
 _ZTVN6KGantt15ConstraintProxyE@Base 2.6.0
 _ZTVN6KGantt16DateTimeTimeLineE@Base 2.7.0
 _ZTVN6KGantt16PenStyleComboBoxE@Base 2.7.0
 _ZTVN6KGantt20ForwardingProxyModelE@Base 2.6.0
 _ZTVN6KGantt21AbstractRowControllerE@Base 2.6.0
 _ZTVN6KGantt21ListViewRowControllerE@Base 2.6.0
 _ZTVN6KGantt21TreeViewRowControllerE@Base 2.6.0
 _ZTVN6KGantt22ConstraintGraphicsItemE@Base 2.6.0
 _ZTVN6KGantt22DateTimeScaleFormatterE@Base 2.6.0
 _ZTVN6KGantt25SummaryHandlingProxyModelE@Base 2.6.0
 _ZTVN6KGantt4ViewE@Base 2.6.0
 _ZTVN6KGantt6LegendE@Base 2.6.0
 _Zls6QDebugN6KGantt12ItemDataRoleE@Base 2.6.0
 _Zls6QDebugN6KGantt22DateTimeScaleFormatter5RangeE@Base 2.6.0
 _Zls6QDebugN6KGantt8ItemTypeE@Base 2.6.0
 _Zls6QDebugRKN6KGantt10ConstraintE@Base 2.6.0
 _Zls6QDebugRKN6KGantt12DateTimeSpanE@Base 2.6.0
 _Zls6QDebugRKN6KGantt15ConstraintModelE@Base 2.6.0
 _Zls6QDebugRKN6KGantt15PrintingContext7FittingE@Base 2.8.0
 _Zls6QDebugRKN6KGantt15PrintingContextE@Base 2.8.0
 _Zls6QDebugRKN6KGantt4SpanE@Base 2.6.0
 (c++)"non-virtual thunk to KGantt::GraphicsView::~GraphicsView()@Base" 2.6.0
 (c++)"non-virtual thunk to KGantt::Legend::~Legend()@Base" 2.6.0
 (c++)"non-virtual thunk to KGantt::View::~View()@Base" 2.6.0
